(dp1
S'output'
p2
S"<type 'exceptions.SyntaxError'> invalid syntax (Unknown, line 1)"
p3
sS'layer'
p4
S'Unknown'
p5
sS'code'
p6
S'<<<<<<< HEAD\npassword="pbkdf2(1000,20,sha512)$99d95359b12018cc$5242cfa6ce3f2fb9dff1223b7063b5748b8b19fa"\n=======\npassword="pbkdf2(1000,20,sha512)$b08a9e6d7d465e1b$fdfa975bef47adc852b2cb1b4632e3635a625735"\n>>>>>>> 1063d5b9c88f6ce5857ae7a44ac54fa292a9cf2c\n'
p7
sS'snapshot'
p8
(dp9
S'exception'
p10
(dp11
S'__getslice__'
p12
S"<method-wrapper '__getslice__' of exceptions.SyntaxError object>"
p13
sS'text'
p14
S"'<<<<<<< HEAD\\n'"
p15
sS'__str__'
p16
S"<method-wrapper '__str__' of exceptions.SyntaxError object>"
p17
sS'__reduce__'
p18
S'<built-in method __reduce__ of exceptions.SyntaxError object>'
p19
sS'__dict__'
p20
S'{}'
p21
sS'__sizeof__'
p22
S'<built-in method __sizeof__ of exceptions.SyntaxError object>'
p23
sS'__init__'
p24
S"<method-wrapper '__init__' of exceptions.SyntaxError object>"
p25
sS'__setattr__'
p26
S"<method-wrapper '__setattr__' of exceptions.SyntaxError object>"
p27
sS'__reduce_ex__'
p28
S'<built-in method __reduce_ex__ of exceptions.SyntaxError object>'
p29
sS'__new__'
p30
S'<built-in method __new__ of type object>'
p31
sS'__format__'
p32
S'<built-in method __format__ of exceptions.SyntaxError object>'
p33
sS'__class__'
p34
S"<type 'exceptions.SyntaxError'>"
p35
sS'filename'
p36
S"'Unknown'"
p37
sS'lineno'
p38
S'1'
sS'msg'
p39
S"'invalid syntax'"
p40
sS'__doc__'
p41
S"'Invalid syntax.'"
p42
sS'__getitem__'
p43
S"<method-wrapper '__getitem__' of exceptions.SyntaxError object>"
p44
sS'__setstate__'
p45
S'<built-in method __setstate__ of exceptions.SyntaxError object>'
p46
sS'__getattribute__'
p47
S"<method-wrapper '__getattribute__' of exceptions.SyntaxError object>"
p48
sS'print_file_and_line'
p49
S'None'
p50
sS'args'
p51
S"('invalid syntax', ('Unknown', 1, 2, '<<<<<<< HEAD\\n'))"
p52
sS'__subclasshook__'
p53
S'<built-in method __subclasshook__ of type object>'
p54
sS'offset'
p55
S'2'
sS'__unicode__'
p56
S'<built-in method __unicode__ of exceptions.SyntaxError object>'
p57
sS'__delattr__'
p58
S"<method-wrapper '__delattr__' of exceptions.SyntaxError object>"
p59
sS'__repr__'
p60
S"<method-wrapper '__repr__' of exceptions.SyntaxError object>"
p61
sS'__hash__'
p62
S"<method-wrapper '__hash__' of exceptions.SyntaxError object>"
p63
ssS'evalue'
p64
S'invalid syntax (Unknown, line 1)'
p65
sS'frames'
p66
(lp67
(dp68
S'file'
p69
S'/home/jose/Documents/2017_2/Procesamiento de Corpus/Proyecto/web2py/gluon/restricted.py'
p70
sS'dump'
p71
(dp72
S'code'
p73
S'\'<<<<<<< HEAD\\npassword="pbkdf2(1000,20,sha512)$99...>>>>>>> 1063d5b9c88f6ce5857ae7a44ac54fa292a9cf2c\\n\''
p74
sS'layer'
p75
S"'Unknown'"
p76
sS'global compile2'
p77
S'<function compile2>'
p78
sS'ccode'
p79
S'undefined'
p80
ssS'lnum'
p81
I226
sS'lines'
p82
(dp83
I224
S'            ccode = code'
p84
sI225
S'        else:'
p85
sI226
S'            ccode = compile2(code, layer)'
p86
sI227
S'        exec ccode in environment'
p87
sI228
S'    except HTTP:'
p88
sI229
S'        raise'
p89
sI230
S'    except RestrictedError:'
p90
sI221
S"    environment['__name__'] = '__restricted__'"
p91
sI222
S'    try:'
p92
sI223
S'        if isinstance(code, types.CodeType):'
p93
ssS'call'
p94
S'(code=\'<<<<<<< HEAD\\npassword="pbkdf2(1000,20,sha512)$99...>>>>>>> 1063d5b9c88f6ce5857ae7a44ac54fa292a9cf2c\\n\', environment={\'__file__\': \'Unknown\', \'__name__\': \'__restricted__\'}, layer=\'Unknown\')'
p95
sS'func'
p96
S'restricted'
p97
sa(dp98
g69
S'/home/jose/Documents/2017_2/Procesamiento de Corpus/Proyecto/web2py/gluon/restricted.py'
p99
sg71
(dp100
S'builtincompile'
p101
S'<built-in function compile>'
p102
sS'code'
p103
S'\'<<<<<<< HEAD\\npassword="pbkdf2(1000,20,sha512)$99...>>>>>>> 1063d5b9c88f6ce5857ae7a44ac54fa292a9cf2c\\n\''
p104
sS'code.rstrip'
p105
S'<built-in method rstrip of str object>'
p106
sS').replace'
p107
g80
sS'layer'
p108
S"'Unknown'"
p109
ssg81
I209
sg82
(dp110
I204
S'def compile2(code, layer):'
p111
sI205
S'    """'
p112
sI206
S"    The ``+'\\\\n'`` is necessary else compile fails when code ends in a comment."
p113
sI207
S'    """'
p114
sI208
S''
sI209
S"    return compile(code.rstrip().replace('\\r\\n', '\\n') + '\\n', layer, 'exec')"
p115
sI210
S''
sI211
S''
sI212
S"def restricted(code, environment=None, layer='Unknown'):"
p116
sI213
S'    """'
p117
ssg94
S'(code=\'<<<<<<< HEAD\\npassword="pbkdf2(1000,20,sha512)$99...>>>>>>> 1063d5b9c88f6ce5857ae7a44ac54fa292a9cf2c\\n\', layer=\'Unknown\')'
p118
sg96
S'compile2'
p119
sasS'pyver'
p120
S'Python 2.7.12+: /usr/bin/python2.7 (prefix: /usr)'
p121
sS'etype'
p122
S"<type 'exceptions.SyntaxError'>"
p123
sS'date'
p124
S'Thu Jun  1 22:34:26 2017'
p125
sS'locals'
p126
(dp127
g4
S"'Unknown'"
p128
sg6
S'\'<<<<<<< HEAD\\npassword="pbkdf2(1000,20,sha512)$99...>>>>>>> 1063d5b9c88f6ce5857ae7a44ac54fa292a9cf2c\\n\''
p129
sssS'traceback'
p130
S'Traceback (most recent call last):\n  File "/home/jose/Documents/2017_2/Procesamiento de Corpus/Proyecto/web2py/gluon/restricted.py", line 226, in restricted\n    ccode = compile2(code, layer)\n  File "/home/jose/Documents/2017_2/Procesamiento de Corpus/Proyecto/web2py/gluon/restricted.py", line 209, in compile2\n    return compile(code.rstrip().replace(\'\\r\\n\', \'\\n\') + \'\\n\', layer, \'exec\')\n  File "Unknown", line 1\n    <<<<<<< HEAD\n     ^\nSyntaxError: invalid syntax\n'
p131
s.