(dp0
S'apta'
p1
F0.007979774038081694
sS'psic\xc3\xb3patas'
p2
F0.007979774038081694
sS'd\xc3\xada'
p3
F0.015880540412420003
sS'pida'
p4
F0.007979774038081694
sS'Pues'
p5
F0.007979774038081694
sS'Cine'
p6
F0.007979774038081694
sS'tratan'
p7
F0.007979774038081694
sS'menos'
p8
F0.007979774038081694
sS'cin\xc3\xa9filos'
p9
F0.007979774038081694
sS'resulta'
p10
F0.007979774038081694
sS'otro'
p11
F0.007979774038081694
sS'ver'
p12
F0.039582839535434934
sS'Ohh_Cin\xc3\xa9filos'
p13
F0.007979774038081694
sS'Burn'
p14
F0.007979774038081694
sS'gandalla'
p15
F0.007979774038081694
sS'decir'
p16
F0.007979774038081694
sS'vea'
p17
F0.007979774038081694
sS'teatrero'
p18
F0.007979774038081694
sS'te'
p19
F0.007979774038081694
sS'integrado'
p20
F0.007979774038081694
sS'Dios'
p21
F0.007979774038081694
sS'algunos'
p22
F0.007979774038081694
sS'Colin_Farrell'
p23
F0.007979774038081694
sS'penes'
p24
F0.007979774038081694
sS'traje'
p25
F0.007979774038081694
sS'haber'
p26
F0.007979774038081694
sS'somos'
p27
F0.007979774038081694
sS'pu\xc3\xb1o'
p28
F0.007979774038081694
sS'cabecera'
p29
F0.007979774038081694
sS'sano'
p30
F0.007979774038081694
sS'temporada'
p31
F0.007979774038081694
sS'amantes'
p32
F0.023781306786758313
sS'result\xc3\xb3'
p33
F0.007979774038081694
sS'homosexuales'
p34
F0.007979774038081694
sS'esos'
p35
F0.007979774038081694
sS'advertencias'
p36
F0.007979774038081694
sS'boca'
p37
F0.015880540412420003
sS'esfuerzo'
p38
F0.007979774038081694
sS'hice'
p39
F0.007979774038081694
sS'traga-palomitas'
p40
F0.007979774038081694
sS'Buscar'
p41
F0.007979774038081694
sS'olvido'
p42
F0.007979774038081694
sS'juicio'
p43
F0.007979774038081694
sS'sus'
p44
F0.03168207316109662
sS'verdadero'
p45
F0.007979774038081694
sS'Que'
p46
F0.03168207316109662
sS'sobre'
p47
F0.007979774038081694
sS'S\xc3\xad'
p48
F0.007979774038081694
sS'matar\xc3\xa1'
p49
F0.007979774038081694
sS'acci\xc3\xb3n'
p50
F0.007979774038081694
sS'bulto'
p51
F0.007979774038081694
sS'vale'
p52
F0.007979774038081694
sS'pagaremos'
p53
F0.007979774038081694
sS'les'
p54
F0.007979774038081694
sS'puede'
p55
F0.015880540412420003
sS'har\xc3\xa1'
p56
F0.007979774038081694
sS'nuevo'
p57
F0.015880540412420003
sS'gasten'
p58
F0.007979774038081694
sS'hachazos'
p59
F0.007979774038081694
sS'escrib\xc3\xad'
p60
F0.007979774038081694
sS'hubiera'
p61
F0.007979774038081694
sS'gastar\xc3\xa9'
p62
F0.007979774038081694
sS'pocho'
p63
F0.007979774038081694
sS'claro'
p64
F0.007979774038081694
sS'literatura'
p65
F0.007979774038081694
sS'City'
p66
F0.007979774038081694
sS'ten\xc3\xadan'
p67
F0.007979774038081694
sS'Madres'
p68
F0.007979774038081694
sS'figura'
p69
F0.007979774038081694
sS'televisi\xc3\xb3n'
p70
F0.007979774038081694
sS'corto'
p71
F0.007979774038081694
sS'ser\xc3\xa1'
p72
F0.007979774038081694
sS'otros'
p73
F0.007979774038081694
sS'Aterrorizar'
p74
F0.007979774038081694
sS'Tomen'
p75
F0.007979774038081694
sS'dejar'
p76
F0.007979774038081694
sS'siempre'
p77
F0.007979774038081694
sS'Europa'
p78
F0.007979774038081694
sS'duda'
p79
F0.007979774038081694
sS'coraz\xc3\xb3n'
p80
F0.007979774038081694
sS'pero'
p81
F0.023781306786758313
sS'invasi\xc3\xb3n'
p82
F0.007979774038081694
sS'diferente'
p83
F0.007979774038081694
sS'todas'
p84
F0.007979774038081694
sS'Qu\xc3\xa9'
p85
F0.007979774038081694
sS'cobrado'
p86
F0.007979774038081694
sS'cuarta'
p87
F0.007979774038081694
sS'vello'
p88
F0.007979774038081694
sS'f\xc3\xadlmica'
p89
F0.015880540412420003
sS'saber'
p90
F0.007979774038081694
sS'Rogen'
p91
F0.007979774038081694
sS'libre'
p92
F0.007979774038081694
sS'Su'
p93
F0.007979774038081694
sS'Ara\xc3\xb1a'
p94
F0.007979774038081694
sS'Si'
p95
F0.015880540412420003
sS'cuanto'
p96
F0.007979774038081694
sS'me'
p97
F0.03168207316109662
sS'caer\xc3\xa1n'
p98
F0.007979774038081694
sS'mi'
p99
F0.023781306786758313
sS'movies'
p100
F0.007979774038081694
sS'era'
p101
F0.007979774038081694
sS'escandalizarse'
p102
F0.007979774038081694
sS'darse_cuenta'
p103
F0.007979774038081694
sS'gorda'
p104
F0.007979774038081694
sS'pecho'
p105
F0.007979774038081694
sS'urgidos'
p106
F0.007979774038081694
sS'La'
p107
F0.007979774038081694
sS'cierra'
p108
F0.015880540412420003
sS'Lo'
p109
F0.007979774038081694
sS'joyitas'
p110
F0.007979774038081694
sS'Otra'
p111
F0.007979774038081694
sS'parranda'
p112
F0.007979774038081694
sS'seremos'
p113
F0.007979774038081694
sS'chin'
p114
F0.007979774038081694
sS'tan'
p115
F0.007979774038081694
sS'vampiros'
p116
F0.007979774038081694
sS'simple'
p117
F0.007979774038081694
sS'!'
p118
F0.0869874377814648
sS'absurdo'
p119
F0.007979774038081694
sS'querido'
p120
F0.007979774038081694
sS'andaba'
p121
F0.015880540412420003
sS'nombre'
p122
F0.007979774038081694
sS'Acaso'
p123
F0.007979774038081694
sS'sin'
p124
F0.007979774038081694
sS'A'
p125
F0.023781306786758313
sS'mas'
p126
F0.015880540412420003
sS'adaptaci\xc3\xb3n'
p127
F0.007979774038081694
sS'causante'
p128
F0.007979774038081694
sS'mont\xc3\xb3n'
p129
F0.007979774038081694
sS'mal'
p130
F0.007979774038081694
sS'Cu\xc3\xa1nto'
p131
F0.007979774038081694
sS'asquerosa'
p132
F0.007979774038081694
sS'a'
p133
F0.16599510152484792
sS'mera'
p134
F0.007979774038081694
sS'proyecci\xc3\xb3n'
p135
F0.015880540412420003
sS'su'
p136
F0.0869874377814648
sS'si'
p137
F0.039582839535434934
sS'grande'
p138
F0.007979774038081694
sS'\xc3\xbanico'
p139
F0.007979774038081694
sS'se'
p140
F0.04748360590977324
sS'Narcos_de_Netflix'
p141
F0.007979774038081694
sS'cine'
p142
F0.023781306786758313
sS'dese\xc3\xb3'
p143
F0.007979774038081694
sS'churrazo'
p144
F0.007979774038081694
sS'panza'
p145
F0.007979774038081694
sS'le'
p146
F0.03168207316109662
sS'poquito'
p147
F0.007979774038081694
sS'la'
p148
F0.18969740064786283
sS'lo'
p149
F0.055384372284111555
sS','
p150
F0.1580943351505096
sS'Director'
p151
F0.007979774038081694
sS'americano'
p152
F0.015880540412420003
sS'pene'
p153
F0.007979774038081694
sS'conoce'
p154
F0.007979774038081694
sS'pena'
p155
F0.007979774038081694
sS'terminaremos'
p156
F0.007979774038081694
sS'protag\xc3\xb3nico'
p157
F0.007979774038081694
sS'alter'
p158
F0.007979774038081694
sS'fines'
p159
F0.007979774038081694
sS'suena'
p160
F0.015880540412420003
sS'yo'
p161
F0.015880540412420003
sS'ya'
p162
F0.03168207316109662
sS'diablos'
p163
F0.007979774038081694
sS'dar'
p164
F0.007979774038081694
sS'herej\xc3\xada'
p165
F0.007979774038081694
sS's\xc3\xa1ndwich'
p166
F0.007979774038081694
sS'nos'
p167
F0.015880540412420003
sS'despu\xc3\xa9s_de'
p168
F0.007979774038081694
sS'chupasangre'
p169
F0.007979774038081694
sS'Jes\xc3\xbas_de_Veracruz'
p170
F0.007979774038081694
sS'humanizado'
p171
F0.007979774038081694
sS'm\xc3\xa1s'
p172
F0.06328513865844987
sS'tras'
p173
F0.007979774038081694
sS'visitas'
p174
F0.007979774038081694
sS'Milk'
p175
F0.007979774038081694
sS'trailer'
p176
F0.007979774038081694
sS'el'
p177
F0.28450659713992255
sS'en'
p178
F0.14229280240183298
sS'mental'
p179
F0.007979774038081694
sS'Kristen_Stewart'
p180
F0.015880540412420003
sS'americanas'
p181
F0.007979774038081694
sS'pantalla'
p182
F0.007979774038081694
sS'todo'
p183
F0.015880540412420003
sS'Alguien'
p184
F0.015880540412420003
sS'The_A_Team'
p185
F0.007979774038081694
sS'fastuosa'
p186
F0.007979774038081694
sS'tecnologizado'
p187
F0.007979774038081694
sS'nunca'
p188
F0.015880540412420003
sS'Maguire'
p189
F0.007979774038081694
sS'as\xc3\xad'
p190
F0.007979774038081694
sS'poco'
p191
F0.007979774038081694
sS'mata'
p192
F0.007979774038081694
sS'de_por_medio'
p193
F0.007979774038081694
sS'tremenda'
p194
F0.007979774038081694
sS'hocico'
p195
F0.007979774038081694
sS'mareo'
p196
F0.007979774038081694
sS'tienen'
p197
F0.007979774038081694
sS'r\xc3\xa1pido'
p198
F0.007979774038081694
sS'Una'
p199
F0.007979774038081694
sS'rubro'
p200
F0.007979774038081694
sS'que'
p201
F0.26080429801690763
sS'Michael_Pe\xc3\xb1a'
p202
F0.007979774038081694
sS'asi'
p203
F0.007979774038081694
sS'El'
p204
F0.023781306786758313
sS'En'
p205
F0.015880540412420003
sS'luego'
p206
F0.007979774038081694
sS'Medio_Oriente'
p207
F0.007979774038081694
sS'empezando'
p208
F0.007979774038081694
sS'Chan'
p209
F0.007979774038081694
sS'gusto'
p210
F0.015880540412420003
sS'Bros'
p211
F0.007979774038081694
sS'suficiente'
p212
F0.007979774038081694
sS'buenotas'
p213
F0.007979774038081694
sS'Anton_Yelchin'
p214
F0.007979774038081694
sS'Hidalgo'
p215
F0.015880540412420003
sS'Bastante'
p216
F0.007979774038081694
sS'Avatar'
p217
F0.007979774038081694
sS'Fett'
p218
F0.007979774038081694
sS'explicaci\xc3\xb3n'
p219
F0.007979774038081694
sS'creatividad'
p220
F0.007979774038081694
sS'pudieron'
p221
F0.007979774038081694
sS'f\xc3\xa1cil'
p222
F0.007979774038081694
sS'mucho'
p223
F0.007979774038081694
sS'tanga'
p224
F0.007979774038081694
sS'renovada'
p225
F0.007979774038081694
sS'Edward_Zwick'
p226
F0.007979774038081694
sS'adoradores'
p227
F0.007979774038081694
sS'elegante'
p228
F0.007979774038081694
sS'destructiva'
p229
F0.007979774038081694
sS'paso'
p230
F0.007979774038081694
sS'muerto'
p231
F0.007979774038081694
sS'para'
p232
F0.06328513865844987
sS'segunda'
p233
F0.007979774038081694
sS'malvado'
p234
F0.007979774038081694
sS'viejas'
p235
F0.007979774038081694
sS'listo'
p236
F0.007979774038081694
sS'Shyamalan'
p237
F0.007979774038081694
sS'actuado'
p238
F0.007979774038081694
sS'promocionales'
p239
F0.007979774038081694
sS'fotograf\xc3\xada'
p240
F0.007979774038081694
sS'olvide'
p241
F0.007979774038081694
sS'moviendo'
p242
F0.007979774038081694
sS'rengl\xc3\xb3n'
p243
F0.007979774038081694
sS'youtube'
p244
F0.007979774038081694
sS'Sex'
p245
F0.007979774038081694
sS'arma'
p246
F0.007979774038081694
sS'charolastra'
p247
F0.007979774038081694
sS'and'
p248
F0.007979774038081694
sS'este'
p249
F0.015880540412420003
sS'esta'
p250
F0.03168207316109662
sS'mismisimo'
p251
F0.007979774038081694
sS'ya_que'
p252
F0.007979774038081694
sS'esto'
p253
F0.015880540412420003
sS'de_pacotilla'
p254
F0.007979774038081694
sS'evolucionado'
p255
F0.007979774038081694
sS'adivinaron'
p256
F0.015880540412420003
sS'abominaci\xc3\xb3n'
p257
F0.007979774038081694
sS'personaje'
p258
F0.007979774038081694
sS'poner'
p259
F0.007979774038081694
sS'masoquista'
p260
F0.007979774038081694
sS'De'
p261
F0.007979774038081694
sS'parece'
p262
F0.007979774038081694
sS'atra\xc3\xaddos'
p263
F0.007979774038081694
sS'pasar'
p264
F0.007979774038081694
sS'mis'
p265
F0.007979774038081694
sS'mediocridad'
p266
F0.007979774038081694
sS'andante'
p267
F0.007979774038081694
sS'ah\xc3\xad'
p268
F0.007979774038081694
sS'figuras'
p269
F0.007979774038081694
sS'cualquier'
p270
F0.007979774038081694
sS'pr\xc3\xb3ximo'
p271
F0.007979774038081694
sS'palomitas'
p272
F0.007979774038081694
sS'Esos'
p273
F0.007979774038081694
sS'escondan'
p274
F0.007979774038081694
sS'reparto'
p275
F0.007979774038081694
sS'sala'
p276
F0.007979774038081694
sS'decencia'
p277
F0.015880540412420003
sS'Por'
p278
F0.007979774038081694
sS'Toni_Collete'
p279
F0.007979774038081694
sS'televisivo'
p280
F0.007979774038081694
sS'fiasco'
p281
F0.007979774038081694
sS'superfluo'
p282
F0.007979774038081694
sS'soberbio'
p283
F0.007979774038081694
sS'porquer\xc3\xadas'
p284
F0.007979774038081694
sS'detective'
p285
F0.007979774038081694
sS'publicidad'
p286
F0.007979774038081694
sS'saga'
p287
F0.007979774038081694
sS'aprovechados'
p288
F0.007979774038081694
sS'carne'
p289
F0.007979774038081694
sS'Eugenio_Derbez'
p290
F0.007979774038081694
sS'hace'
p291
F0.007979774038081694
sS'chistes'
p292
F0.007979774038081694
sS'pinche'
p293
F0.007979774038081694
sS'('
p294
F0.055384372284111555
sS'Ser\xc3\xa1'
p295
F0.015880540412420003
sS'quieres'
p296
F0.007979774038081694
sS'caprichito'
p297
F0.007979774038081694
sS'familias'
p298
F0.007979774038081694
sS'guarden'
p299
F0.007979774038081694
sS'de'
p300
F0.40301809275499717
sS'machos'
p301
F0.007979774038081694
sS'vuelven'
p302
F0.007979774038081694
sS'Algo'
p303
F0.007979774038081694
sS'prohibir\xc3\xada'
p304
F0.007979774038081694
sS'dram\xc3\xa1tico'
p305
F0.015880540412420003
sS'comprar'
p306
F0.007979774038081694
sS'partir'
p307
F0.007979774038081694
sS'derechos'
p308
F0.007979774038081694
sS'torturar'
p309
F0.007979774038081694
sS'pagar'
p310
F0.015880540412420003
sS'estad\xc3\xadsticas'
p311
F0.007979774038081694
sS'ser'
p312
F0.015880540412420003
sS'Anderson'
p313
F0.007979774038081694
sS'exacerbado'
p314
F0.007979774038081694
sS'sea'
p315
F0.007979774038081694
sS'\xc3\xbaltima'
p316
F0.007979774038081694
sS'dirigido'
p317
F0.007979774038081694
sS'gags'
p318
F0.007979774038081694
sS'cristianos'
p319
F0.007979774038081694
sS'muy'
p320
F0.007979774038081694
sS'Mmmm'
p321
F0.007979774038081694
sS'llamada'
p322
F0.007979774038081694
sS'bien'
p323
F0.023781306786758313
sS'estar'
p324
F0.007979774038081694
sS'estas'
p325
F0.03168207316109662
sS'pirata'
p326
F0.007979774038081694
sS'reading'
p327
F0.007979774038081694
sS'Posibles'
p328
F0.007979774038081694
sS'alguien'
p329
F0.007979774038081694
sS'abandon\xc3\xb3'
p330
F0.007979774038081694
sS'dinero'
p331
F0.03168207316109662
sS'debe'
p332
F0.007979774038081694
sS'tripas'
p333
F0.007979774038081694
sS'disfrutar\xc3\xa1n'
p334
F0.007979774038081694
sS'como'
p335
F0.055384372284111555
sS'sobrevalorado'
p336
F0.007979774038081694
sS'est\xc3\xa9tica'
p337
F0.007979774038081694
sS'cinta'
p338
F0.007979774038081694
sS'hollywoodense'
p339
F0.007979774038081694
sS'cinematogr\xc3\xa1fico'
p340
F0.007979774038081694
sS'necesario'
p341
F0.007979774038081694
sS'adultos'
p342
F0.007979774038081694
sS'esperando'
p343
F0.007979774038081694
sS'ahora'
p344
F0.007979774038081694
sS'una'
p345
F0.023781306786758313
sS'pitufisandeces'
p346
F0.007979774038081694
sS'secreto'
p347
F0.007979774038081694
sS'quien'
p348
F0.015880540412420003
sS'proyecto'
p349
F0.015880540412420003
sS'con'
p350
F0.09488820415580311
sS'cierto'
p351
F0.007979774038081694
sS'traga'
p352
F0.007979774038081694
sS's\xc3\xa9ptimo'
p353
F0.007979774038081694
sS'peyote'
p354
F0.007979774038081694
sS'por'
p355
F0.07118590503278817
sS'Los'
p356
F0.007979774038081694
sS'actriz'
p357
F0.007979774038081694
sS'ante'
p358
F0.007979774038081694
sS'Slade'
p359
F0.007979774038081694
sS'tiene'
p360
F0.007979774038081694
sS'dejen'
p361
F0.007979774038081694
sS'.'
p362
F0.023781306786758313
sS'literal'
p363
F0.007979774038081694
sS'pa'
p364
F0.023781306786758313
sS'arte'
p365
F0.015880540412420003
sS'las'
p366
F0.023781306786758313
sS'qu\xc3\xa9'
p367
F0.015880540412420003
sS'horrenda'
p368
F0.007979774038081694
sS'mujeriego'
p369
F0.007979774038081694
sS'chan'
p370
F0.023781306786758313
sS'inservibles'
p371
F0.007979774038081694
sS'James_Franco'
p372
F0.007979774038081694
sS'gusten'
p373
F0.007979774038081694
sS'cinco'
p374
F0.007979774038081694
sS'ni\xc3\xb1ote'
p375
F0.007979774038081694
sS'mundo'
p376
F0.007979774038081694
sS'Anthony_Hopkins'
p377
F0.007979774038081694
sS'vomito'
p378
F0.007979774038081694
sS'repetir'
p379
F0.007979774038081694
sS'caso'
p380
F0.007979774038081694
sS'formato'
p381
F0.007979774038081694
sS'entrega'
p382
F0.007979774038081694
sS'dir\xc3\xada'
p383
F0.007979774038081694
sS'efecto'
p384
F0.007979774038081694
sS'Estamos'
p385
F0.007979774038081694
sS'Alex'
p386
F0.007979774038081694
sS'querr\xc3\xa1n'
p387
F0.007979774038081694
sS'a_trav\xc3\xa9s_de'
p388
F0.007979774038081694
sS'va'
p389
F0.007979774038081694
sS'experto'
p390
F0.007979774038081694
sS'ir'
p391
F0.015880540412420003
sS'Eso'
p392
F0.007979774038081694
sS'importa'
p393
F0.007979774038081694
sS')'
p394
F0.04748360590977324
sS'gaste'
p395
F0.007979774038081694
sS'hermosos'
p396
F0.007979774038081694
sS'efectivo'
p397
F0.007979774038081694
sS'todos'
p398
F0.023781306786758313
sS'tiempo'
p399
F0.007979774038081694
sS'mujeres'
p400
F0.007979774038081694
sS'ni_que'
p401
F0.007979774038081694
sS'gringos'
p402
F0.007979774038081694
sS'hipsters-existencialistas-mamertos'
p403
F0.007979774038081694
sS'remake'
p404
F0.007979774038081694
sS'luchador'
p405
F0.015880540412420003
sS'urgido'
p406
F0.007979774038081694
sS'novela'
p407
F0.007979774038081694
sS'bolsita'
p408
F0.007979774038081694
sS'Y'
p409
F0.023781306786758313
sS'representante'
p410
F0.007979774038081694
sS't\xc3\xadtulo'
p411
F0.007979774038081694
sS'hacer'
p412
F0.015880540412420003
sS'haga'
p413
F0.007979774038081694
sS'pel\xc3\xadcula'
p414
F0.007979774038081694
sS'radica'
p415
F0.007979774038081694
sS'Orson_Welles'
p416
F0.007979774038081694
sS'molida'
p417
F0.007979774038081694
sS'y'
p418
F0.19759816702220115
sS'the'
p419
F0.007979774038081694
sS'hacen'
p420
F0.007979774038081694
sS'chispazos'
p421
F0.007979774038081694
sS'extraterrestres'
p422
F0.007979774038081694
sS'salvo'
p423
F0.007979774038081694
sS'zambullir'
p424
F0.007979774038081694
sS'ley\xc3\xb3'
p425
F0.007979774038081694
sS'verdad'
p426
F0.03168207316109662
sS'recordaci\xc3\xb3n'
p427
F0.007979774038081694
sS'enterrar'
p428
F0.007979774038081694
sS'Tobey'
p429
F0.007979774038081694
sS'servidor'
p430
F0.007979774038081694
sS'en_contra_de'
p431
F0.007979774038081694
sS'sobrando'
p432
F0.007979774038081694
sS'trataba'
p433
F0.007979774038081694
sS'nacional'
p434
F0.015880540412420003
sS'hay'
p435
F0.007979774038081694
sS'4'
p436
F0.007979774038081694
sS'Inception'
p437
F0.007979774038081694
sS'conmovedora'
p438
F0.007979774038081694
sS'inconstante'
p439
F0.007979774038081694
sS'amarilla'
p440
F0.007979774038081694
sS'acostumbrados'
p441
F0.007979774038081694
sS'vergonzosa'
p442
F0.007979774038081694
sS'historia'
p443
F0.015880540412420003
sS'Skyline'
p444
F0.007979774038081694
sS'D\xc3\xadaz'
p445
F0.007979774038081694
sS'Apta'
p446
F0.007979774038081694
sS'neuronas'
p447
F0.007979774038081694
sS'barbaridad'
p448
F0.007979774038081694
sS'chica'
p449
F0.007979774038081694
sS'zombies'
p450
F0.015880540412420003
sS'ayuno'
p451
F0.007979774038081694
sS'Las'
p452
F0.007979774038081694
sS'creen'
p453
F0.007979774038081694
sS'sketch'
p454
F0.007979774038081694
sS'metiendo'
p455
F0.007979774038081694
sS'ustedes'
p456
F0.015880540412420003
sS'perseguidos'
p457
F0.007979774038081694
sS'deliciosa'
p458
F0.007979774038081694
sS'extensi\xc3\xb3n'
p459
F0.007979774038081694
sS'publico'
p460
F0.007979774038081694
sS'humor'
p461
F0.007979774038081694
sS'conocimos'
p462
F0.007979774038081694
sS'pues'
p463
F0.015880540412420003
sS'palomero'
p464
F0.007979774038081694
sS'ese'
p465
F0.007979774038081694
sS'Les'
p466
F0.007979774038081694
sS'crueles'
p467
F0.007979774038081694
sS'semidesnudo'
p468
F0.007979774038081694
sS'queridos'
p469
F0.007979774038081694
sS'eso'
p470
F0.015880540412420003
sS'andabas'
p471
F0.007979774038081694
sS'?'
p472
F0.1580943351505096
sS'mamarrachada'
p473
F0.007979774038081694
sS'fan\xc3\xa1ticos'
p474
F0.007979774038081694
sS'queda'
p475
F0.007979774038081694
sS'O'
p476
F0.007979774038081694
sS'sonara'
p477
F0.007979774038081694
sS'Un'
p478
F0.007979774038081694
sS'chingadazo'
p479
F0.007979774038081694
sS'McDonalds'
p480
F0.007979774038081694
sS'producci\xc3\xb3n'
p481
F0.007979774038081694
sS'testosterona'
p482
F0.007979774038081694
sS'veces'
p483
F0.007979774038081694
sS'centennials'
p484
F0.007979774038081694
sS'ning\xc3\xban'
p485
F0.007979774038081694
sS'Esto'
p486
F0.007979774038081694
sS'lector'
p487
F0.007979774038081694
sS'o'
p488
F0.023781306786758313
sS'ande'
p489
F0.007979774038081694
sS'dudas'
p490
F0.007979774038081694
sS'algo'
p491
F0.015880540412420003
sS'misma'
p492
F0.007979774038081694
sS'mismo'
p493
F0.015880540412420003
sS'avisan'
p494
F0.007979774038081694
sS'No'
p495
F0.03168207316109662
sS'monetarios'
p496
F0.007979774038081694
sS'son'
p497
F0.007979774038081694
sS'Bourne'
p498
F0.007979774038081694
sS'estudiantes'
p499
F0.007979774038081694
sS'soy'
p500
F0.007979774038081694
sS'primeras'
p501
F0.007979774038081694
sS'mamarrachadas'
p502
F0.007979774038081694
sS'imagen'
p503
F0.015880540412420003
sS'van'
p504
F0.007979774038081694
sS'justifique'
p505
F0.007979774038081694
sS'salieron'
p506
F0.007979774038081694
sS'di\xc3\xa1logos'
p507
F0.007979774038081694
sS'Viva'
p508
F0.007979774038081694
sS'los'
p509
F0.07908667140712648
sS'brillan'
p510
F0.007979774038081694
sS'pozolero'
p511
F0.007979774038081694
sS':'
p512
F0.007979774038081694
sS'chiquillos'
p513
F0.015880540412420003
sS'encanta'
p514
F0.007979774038081694
sS'completa'
p515
F0.007979774038081694
sS'haciendo'
p516
F0.007979774038081694
sS'escuincles'
p517
F0.007979774038081694
sS'serie'
p518
F0.007979774038081694
sS'aprendan'
p519
F0.007979774038081694
sS'ha'
p520
F0.007979774038081694
sS'viva'
p521
F0.007979774038081694
sS'crecidito'
p522
F0.007979774038081694
sS'Bueno'
p523
F0.007979774038081694
sS'\xc2\xa1'
p524
F0.07118590503278817
sS'porquer\xc3\xada'
p525
F0.015880540412420003
sS'pedote'
p526
F0.007979774038081694
sS'peso'
p527
F0.007979774038081694
sS'Cierra'
p528
F0.007979774038081694
sS'tener'
p529
F0.007979774038081694
sS'un'
p530
F0.11068973690447972
sS'\xc2\xbf'
p531
F0.16599510152484792
sS'usted'
p532
F0.007979774038081694
sS'Personas'
p533
F0.007979774038081694
sS'\xe2\x80\x9d'
p534
F0.11859050327881804
sS'estilo'
p535
F0.007979774038081694
sS'necesita'
p536
F0.007979774038081694
sS'seguramente'
p537
F0.007979774038081694
sS'salen'
p538
F0.007979774038081694
sS'Ese'
p539
F0.007979774038081694
sS'verdaderos'
p540
F0.007979774038081694
sS'cura'
p541
F0.007979774038081694
sS'actores'
p542
F0.007979774038081694
sS'apreciar'
p543
F0.007979774038081694
sS'ni'
p544
F0.015880540412420003
sS'Richard_Jenkins'
p545
F0.007979774038081694
sS'no'
p546
F0.12649126965315635
sS'deber\xc3\xadan'
p547
F0.007979774038081694
sS'na'
p548
F0.015880540412420003
sS'actor'
p549
F0.015880540412420003
sS'habr\xc3\xa1'
p550
F0.007979774038081694
sS'tercos'
p551
F0.007979774038081694
sS'es'
p552
F0.03168207316109662
sS'Dreamworks'
p553
F0.007979774038081694
sS'narco'
p554
F0.007979774038081694
sS'secundario'
p555
F0.007979774038081694
sS'nuevamente'
p556
F0.007979774038081694
sS'secundaria'
p557
F0.007979774038081694
sS'Legi\xc3\xb3n_de_\xc3\x81ngeles'
p558
F0.007979774038081694
sS'Esperen'
p559
F0.007979774038081694
sS'remambaramba'
p560
F0.007979774038081694
sS'documental'
p561
F0.007979774038081694
sS'\xe2\x80\xa6'
p562
F0.03168207316109662
sS'La_Mars'
p563
F0.007979774038081694
sS'acaso'
p564
F0.007979774038081694
sS'Hamburguesa'
p565
F0.007979774038081694
sS'bodrios'
p566
F0.007979774038081694
sS'\xe2\x80\x93'
p567
F0.007979774038081694
sS'\xe2\x80\x99'
p568
F0.039582839535434934
sS'demasiados'
p569
F0.007979774038081694
sS'\xe2\x80\x9c'
p570
F0.12649126965315635
sS'karma'
p571
F0.007979774038081694
sS'secuelitis'
p572
F0.007979774038081694
sS'irrespetuosa'
p573
F0.007979774038081694
s.