ccollections
Counter
p0
((dp1
S'voluble'
p2
I1
sS'Hiam_Abbass'
p3
I1
sS'\xc3\x9cberflieger'
p4
I1
sS'Antal'
p5
I1
sS'valent\xc3\xada'
p6
I2
sS'Pues'
p7
I3
sS'apegado'
p8
I2
sS'escribe'
p9
I4
sS'pelirroja'
p10
I1
sS'Sundance'
p11
I3
sS'tildada'
p12
I1
sS'hijos'
p13
I2
sS'otro'
p14
I14
sS'imperativa'
p15
I1
sS'presenta'
p16
I4
sS'guerrero'
p17
I1
sS'Umbrella'
p18
I2
sS'porche'
p19
I1
sS'presente'
p20
I1
sS'caracter\xc3\xadstica'
p21
I1
sS'agarrados'
p22
I1
sS'gandalla'
p23
I2
sS'otra'
p24
I20
sS'igual'
p25
I2
sS'ciudades'
p26
I3
sS'segmento'
p27
I2
sS'hermana'
p28
I4
sS'avi\xc3\xb3n'
p29
I1
sS'hermano'
p30
I2
sS'antecede'
p31
I1
sS'alcanzando'
p32
I1
sS'Gaj\xc3\xa1'
p33
I3
sS'Blade'
p34
I1
sS'Dax_Shepard'
p35
I1
sS'compa\xc3\xb1\xc3\xada'
p36
I1
sS'por_si_las_moscas'
p37
I1
sS'encausado'
p38
I1
sS'loter\xc3\xada'
p39
I1
sS'algunos'
p40
I15
sS'Scrubs'
p41
I1
sS'Tome'
p42
I1
sS'sucede'
p43
I1
sS'Quiz\xc3\xa1s'
p44
I2
sS'sangre'
p45
I7
sS'recuerdan'
p46
I1
sS'apaciguamientos'
p47
I1
sS'velar'
p48
I1
sS'haber'
p49
I14
sS'h\xc3\xa1bito'
p50
I2
sS'elegir'
p51
I1
sS'deplorable'
p52
I2
sS'fuera'
p53
I6
sS'ente'
p54
I1
sS'esos'
p55
I5
sS'merecidamente'
p56
I2
sS'sobrevivimos'
p57
I1
sS'ejemplo'
p58
I2
sS'novelitas'
p59
I1
sS'olvide'
p60
I4
sS'gatos'
p61
I1
sS'Buscar'
p62
I1
sS'olvido'
p63
I3
sS'vendido'
p64
I1
sS'jovenzuelo'
p65
I1
sS'aspectos'
p66
I2
sS'Festival_Internacional_de_Cine'
p67
I1
sS'tienen'
p68
I12
sS'Sarah_Jessica_Parker'
p69
I1
sS'Javier_Bardem'
p70
I1
sS'The_Bone_Collector'
p71
I2
sS'Caribe'
p72
I1
sS'Monsters_Inc.'
p73
I1
sS'estuve'
p74
I1
sS'pl\xc3\xa1ticas'
p75
I1
sS'adentrando'
p76
I1
sS'Uno'
p77
I3
sS'regiomontano'
p78
I1
sS'nata'
p79
I1
sS'atea'
p80
I1
sS'Venom'
p81
I1
sS'legendario'
p82
I2
sS'temblar'
p83
I1
sS'bulto'
p84
I1
sS'gustos'
p85
I1
sS'imposibles'
p86
I1
sS'Fernando_Coimbra'
p87
I1
sS'mes'
p88
I17
sS'De'
p89
I18
sS'mon\xc3\xa1stica'
p90
I1
sS'activa'
p91
I1
sS'Onofrio'
p92
I1
sS'gasten'
p93
I1
sS'renombre'
p94
I2
sS'momia'
p95
I1
sS'oro'
p96
I4
sS'ignorantes'
p97
I1
sS'postor'
p98
I1
sS'cr\xc3\xadticas'
p99
I6
sS'Carlos_Bardem'
p100
I1
sS'r\xc3\xadan'
p101
I1
sS'Hair'
p102
I1
sS'Sentado'
p103
I1
sS'resto'
p104
I1
sS'terminado'
p105
I1
sS'Wonderland'
p106
I1
sS'espacios'
p107
I1
sS'Emmys'
p108
I1
sS'cobijados'
p109
I1
sS'Dexter'
p110
I1
sS'rostros'
p111
I1
sS'excitante'
p112
I1
sS'reciente'
p113
I5
sS'retra\xc3\xadda'
p114
I1
sS'luminosa'
p115
I1
sS'ligera'
p116
I1
sS'\xc3\xa9sta'
p117
I1
sS'estar\xc3\xa1'
p118
I2
sS'Madre_Patria'
p119
I1
sS'unir'
p120
I1
sS'aun'
p121
I3
sS'chavo'
p122
I1
sS'deleitar'
p123
I1
sS'sosegar'
p124
I1
sS'pubertas'
p125
I1
sS'escotes'
p126
I1
sS'llenar'
p127
I3
sS'espacio'
p128
I1
sS'ac\xc3\xa1'
p129
I2
sS'intruso'
p130
I1
sS'esfuerzos'
p131
I4
sS'desmenuzar'
p132
I1
sS'encontramos'
p133
I2
sS'Caine'
p134
I1
sS'desesperar'
p135
I1
sS'arma'
p136
I1
sS'funciona'
p137
I1
sS'posteriormente'
p138
I1
sS'pacto'
p139
I1
sS'pactado'
p140
I2
sS'peleas'
p141
I1
sS'n\xc3\xbacleo'
p142
I1
sS'miren'
p143
I1
sS'cercano'
p144
I2
sS'Sharlto_Copley'
p145
I1
sS'Jack_Earle_Haley'
p146
I1
sS'cineasta'
p147
I9
sS'Geoffrey_Rush'
p148
I1
sS'Sahara'
p149
I1
sS'Ludacris'
p150
I2
sS'servido'
p151
I1
sS'blade'
p152
I2
sS'temas'
p153
I1
sS'hizo'
p154
I5
sS'movies'
p155
I1
sS'Luna'
p156
I1
sS'Repitiendo'
p157
I1
sS'deliberadamente'
p158
I1
sS'Antonio_Serrano_Arg\xc3\xbcelles'
p159
I1
sS'Alex_Syntek'
p160
I1
sS'preciosistas'
p161
I1
sS'La'
p162
I52
sS'cartas'
p163
I2
sS'Lo'
p164
I7
sS'John_McClane'
p165
I1
sS'fabricantes'
p166
I1
sS'Li'
p167
I1
sS'seremos'
p168
I2
sS'pinta'
p169
I2
sS'colocado'
p170
I1
sS'depravaciones'
p171
I1
sS'Alison_Brie'
p172
I2
sS'a_partir_de'
p173
I1
sS'succionar'
p174
I1
sS'dom\xc3\xa9stica'
p175
I1
sS'viejos'
p176
I1
sS'cielo'
p177
I1
sS'ministro'
p178
I1
sS'colonia'
p179
I1
sS'saltones'
p180
I1
sS'tropiezos'
p181
I3
sS'diab\xc3\xb3licos'
p182
I1
sS'mediante'
p183
I1
sS'Brandon_de_Wilde'
p184
I1
sS'interpretaci\xc3\xb3n'
p185
I2
sS'Ventanas'
p186
I1
sS'hoy'
p187
I2
sS'A'
p188
I28
sS'cari\xc3\xb1o'
p189
I2
sS'en_busca_de'
p190
I1
sS'Sinceramente'
p191
I1
sS'innovadoras'
p192
I1
sS'constante'
p193
I1
sS'expedici\xc3\xb3n'
p194
I1
sS'alegre'
p195
I2
sS'homosexualidad'
p196
I1
sS'Laurence_Fishburne'
p197
I1
sS'sede'
p198
I1
sS'conformado'
p199
I1
sS'calidad'
p200
I23
sS'moment\xc3\xa1neos'
p201
I1
sS'Kingsman'
p202
I2
sS'estrategia'
p203
I1
sS'sensualidad'
p204
I1
sS'conformada'
p205
I2
sS'horas'
p206
I3
sS'sentir'
p207
I1
sS'secretos'
p208
I1
sS'd\xc3\xa9biles'
p209
I1
sS'gan\xc3\xb3'
p210
I1
sS'Hamburguesa'
p211
I1
sS'consistente'
p212
I1
sS'aliar'
p213
I1
sS'\xc3\xbanica'
p214
I5
sS'Ninguna'
p215
I1
sS'servir\xc3\xa1'
p216
I1
sS'opt\xc3\xb3'
p217
I1
sS'\xc3\xbanico'
p218
I6
sS'romper'
p219
I1
sS'eliminados'
p220
I1
sS'disminuye'
p221
I1
sS'dejen'
p222
I1
sS'baratos'
p223
I1
sS'aberrante'
p224
I1
sS'virgen'
p225
I1
sS'Topher_Grace'
p226
I1
sS'furia'
p227
I1
sS'estrena'
p228
I1
sS'platicadillas'
p229
I1
sS'iniciar\xc3\xa1n'
p230
I1
sS'cerrar'
p231
I1
sS'personal'
p232
I2
sS'peliculillas'
p233
I1
sS'canci\xc3\xb3n'
p234
I1
sS'estreno'
p235
I9
sS'escribir\xc3\xa9'
p236
I1
sS'costado'
p237
I1
sS'barato'
p238
I2
sS'anteriormente'
p239
I4
sS'creo'
p240
I4
sS'crea'
p241
I1
sS'posiblemente'
p242
I1
sS'fin'
p243
I15
sS'cree'
p244
I1
sS'elenco'
p245
I2
sS'barata'
p246
I2
sS'palidece'
p247
I1
sS'documentales'
p248
I1
sS'saciado'
p249
I1
sS'decidir'
p250
I1
sS'avienta'
p251
I1
sS'Seth'
p252
I1
sS'Piratas_de_el_Caribe'
p253
I1
sS'desconocido'
p254
I5
sS'aclamado'
p255
I2
sS'La_Merced'
p256
I1
sS'peque\xc3\xb1o'
p257
I3
sS'peque\xc3\xb1a'
p258
I1
sS'aclamada'
p259
I2
sS'inservible'
p260
I2
sS'misi\xc3\xb3n'
p261
I7
sS'exhalaci\xc3\xb3n'
p262
I1
sS'First_Dates'
p263
I1
sS'despu\xc3\xa9s_de'
p264
I16
sS'Adivinen'
p265
I1
sS'debut'
p266
I2
sS'abordar'
p267
I1
sS'Syntek'
p268
I1
sS'luce'
p269
I1
sS'representa'
p270
I2
sS'Mauricio_Garc\xc3\xa9s'
p271
I1
sS'sido'
p272
I13
sS'v\xc3\xa1stagos'
p273
I1
sS'taquillero'
p274
I1
sS'ingresar'
p275
I1
sS'cuestiones'
p276
I1
sS'soberbio'
p277
I1
sS'series'
p278
I7
sS'escapar'
p279
I2
sS'soberbia'
p280
I2
sS'consentimiento'
p281
I1
sS'Entretanto'
p282
I1
sS'delgado'
p283
I1
sS'americanas'
p284
I1
sS'abundante'
p285
I1
sS'Jacques_Cousteu'
p286
I1
sS'hartando'
p287
I1
sS'Brosnan'
p288
I1
sS'Parpados'
p289
I1
sS'The_A_Team'
p290
I1
sS'a_diferencia_de'
p291
I1
sS'urbano'
p292
I1
sS'plantear'
p293
I1
sS'tales'
p294
I1
sS'Rachel_Getting_Married'
p295
I1
sS'crucial'
p296
I1
sS'hermoso'
p297
I1
sS're'
p298
I1
sS'Act\xc3\xbaan'
p299
I1
sS'lug\xc3\xbabres'
p300
I1
sS'cines'
p301
I2
sS'reconocimiento'
p302
I2
sS'hocico'
p303
I2
sS'Sofi'
p304
I1
sS'incansable'
p305
I1
sS'resume'
p306
I1
sS'correcto'
p307
I2
sS'contraparte'
p308
I1
sS'Daniel_San'
p309
I2
sS'rubro'
p310
I5
sS'entrar'
p311
I4
sS'recomendaciones'
p312
I2
sS'Estrada'
p313
I4
sS'Joaqu\xc3\xadn_Cosio'
p314
I1
sS'Medio_Oriente'
p315
I1
sS'sigan'
p316
I1
sS'recuerde'
p317
I1
sS'Chan'
p318
I1
sS'recopilaci\xc3\xb3n'
p319
I1
sS'Julianne_Moore'
p320
I1
sS'Toy_Story'
p321
I2
sS'est\xc3\xa1ndares'
p322
I6
sS'universitarias'
p323
I2
sS'creatividad'
p324
I2
sS'Taiwan\xc3\xa9s_Justin_Li'
p325
I1
sS'extraordinaria'
p326
I2
sS'pron\xc3\xb3stico'
p327
I1
sS'adepto'
p328
I2
sS'consumismo'
p329
I1
sS'agregar'
p330
I1
sS'podr\xc3\xada'
p331
I6
sS'tanga'
p332
I1
sS'alrededor_de'
p333
I1
sS'Andr\xc3\xa9s'
p334
I2
sS'historial'
p335
I2
sS'Always_Know'
p336
I1
sS'historias'
p337
I4
sS'inocentes'
p338
I1
sS'padrote'
p339
I1
sS'ceremonia'
p340
I1
sS'abuso'
p341
I4
sS'Dami\xc3\xa1n_Alcazar_Se_Dice'
p342
I1
sS'22_de_septiembre'
p343
I1
sS'segundo'
p344
I7
sS'abril'
p345
I1
sS'segunda'
p346
I19
sS'basando'
p347
I1
sS'digo'
p348
I1
sS'territoriales'
p349
I1
sS'Estados_Unidos'
p350
I6
sS'esperada'
p351
I3
sS'abrir'
p352
I1
sS'griegas'
p353
I1
sS'inversionistas'
p354
I1
sS'moviendo'
p355
I1
sS'diario'
p356
I2
sS'silla'
p357
I2
sS'humor\xc3\xadsticas'
p358
I1
sS'estrellas'
p359
I1
sS'haya'
p360
I3
sS'conformo'
p361
I1
sS'tres'
p362
I8
sS'conforma'
p363
I1
sS'revitalizado'
p364
I1
sS'conforme'
p365
I1
sS'juguetes'
p366
I2
sS'este'
p367
I96
sS'despreciable'
p368
I1
sS'esta'
p369
I107
sS'mismisimo'
p370
I1
sS'Chicago'
p371
I1
sS'pesado'
p372
I1
sS'esto'
p373
I12
sS'Charlize_Theron'
p374
I1
sS'Cameron_Diaz'
p375
I1
sS'acompa\xc3\xb1e'
p376
I1
sS'Porque'
p377
I2
sS'D.J._Caruso'
p378
I1
sS'disc\xc3\xadpulo'
p379
I1
sS'Albert'
p380
I1
sS'productora'
p381
I5
sS'recordado'
p382
I1
sS'farmac\xc3\xa9utico'
p383
I1
sS'Asi'
p384
I1
sS'Jeff_Bridges'
p385
I1
sS'brillantina'
p386
I1
sS'esclavitud'
p387
I1
sS'quiz\xc3\xa1s'
p388
I1
sS'Knight'
p389
I1
sS'nuevos'
p390
I2
sS'veraniego'
p391
I1
sS'emocionalmente'
p392
I1
sS'llamar'
p393
I2
sS'victoria'
p394
I1
sS'y'
p395
I833
sS'secuelas'
p396
I2
sS'Sparrow'
p397
I1
sS'Directito_de_Francia'
p398
I1
sS'aciertos'
p399
I2
sS'Peter_Fonda'
p400
I1
sS'thriller'
p401
I10
sS'derrotada'
p402
I1
sS'irreverentes'
p403
I1
sS'Adam_Lang'
p404
I1
sS'don'
p405
I1
sS'tipo'
p406
I3
sS'peca'
p407
I1
sS'Delicatessen'
p408
I1
sS'Monsieur_LaPadite'
p409
I1
sS'pronostico'
p410
I1
sS'productoras'
p411
I4
sS'causantes'
p412
I1
sS'Sexta'
p413
I2
sS'dos'
p414
I37
sS'mensaje'
p415
I2
sS'referencias'
p416
I3
sS'naci\xc3\xb3n'
p417
I1
sS'actuado'
p418
I1
sS'atroz'
p419
I1
sS'espadas'
p420
I1
sS'aliada'
p421
I1
sS'sentidos'
p422
I1
sS'Kate_Micucci'
p423
I1
sS'reconoc\xc3\xad'
p424
I1
sS'filtra'
p425
I1
sS'salvo'
p426
I1
sS'Macho'
p427
I1
sS'inyectan'
p428
I1
sS'premiaciones'
p429
I1
sS'fot\xc3\xb3grafa'
p430
I1
sS'estereotipado'
p431
I2
sS'quieren'
p432
I3
sS'hembra'
p433
I1
sS'invictos'
p434
I1
sS'mi\xc3\xa9rcoles'
p435
I2
sS'disparos'
p436
I1
sS'estuvo'
p437
I2
sS'religiosos'
p438
I4
sS'rico'
p439
I2
sS'Nominaci\xc3\xb3n'
p440
I1
sS'n\xc3\xbamero'
p441
I1
sS'Karen_Gillan'
p442
I1
sS'empatizar'
p443
I1
sS'quieres'
p444
I1
sS'rica'
p445
I1
sS'11'
p446
I1
sS'saldr\xc3\xa1n'
p447
I1
sS'sobre'
p448
I25
sS'Rellena'
p449
I1
sS'plato'
p450
I1
sS'stop'
p451
I2
sS'Tal_vez'
p452
I1
sS'desv\xc3\xadan'
p453
I1
sS'sustituir'
p454
I1
sS'supieran'
p455
I1
sS'rebajan'
p456
I1
sS'hierro'
p457
I1
sS'publicaci\xc3\xb3n'
p458
I1
sS'14'
p459
I1
sS'pa\xc3\xads'
p460
I5
sS'intenta'
p461
I1
sS'digamos'
p462
I2
sS'Underdog'
p463
I1
sS'perros'
p464
I1
sS'\xc3\x81gora'
p465
I1
sS'comprar'
p466
I1
sS'Bruce_Willis'
p467
I1
sS'empeora'
p468
I1
sS'llevando'
p469
I1
sS'desalentar'
p470
I1
sS'ears'
p471
I1
sS'momentos'
p472
I7
sS'estad\xc3\xadsticas'
p473
I2
sS'District'
p474
I1
sS'eventos'
p475
I1
sS'aventur\xc3\xa9'
p476
I1
sS'curr\xc3\xadculo'
p477
I1
sS'Bella'
p478
I2
sS'descubrir'
p479
I2
sS'Anderson'
p480
I2
sS'proyectados'
p481
I1
sS'ahorrar'
p482
I1
sS'Max_Steiner'
p483
I1
sS'altamente'
p484
I2
sS'Dardenne'
p485
I2
sS'\xe2\x80\x9d'
p486
I202
sS'Cr\xc3\xa9ditos'
p487
I5
sS'flojera'
p488
I2
sS'c\xc3\xb3mo'
p489
I6
sS'Liam_Nelson'
p490
I1
sS'naturaleza'
p491
I6
sS'pirata'
p492
I2
sS'alguien'
p493
I3
sS'Gene_Hackman'
p494
I1
sS'debo'
p495
I1
sS'alcanzar\xc3\xa1'
p496
I1
sS'C'
p497
I1
sS'sumar\xc3\xa1'
p498
I1
sS'nominadas'
p499
I2
sS'azar'
p500
I1
sS'debe'
p501
I13
sS'charolastra'
p502
I1
sS'Ahora'
p503
I5
sS'deba'
p504
I1
sS'Serrano'
p505
I1
sS'desenlace'
p506
I2
sS'est\xc3\xa9tico'
p507
I1
sS'claman'
p508
I1
sS'estr\xc3\xa9s'
p509
I1
sS'Bronx'
p510
I1
sS'sobrevalorado'
p511
I1
sS'est\xc3\xa9tica'
p512
I2
sS'cortaron'
p513
I1
sS'radiante'
p514
I1
sS'Morbido_Fest'
p515
I1
sS'una'
p516
I263
sS'une'
p517
I1
sS'reconstruido'
p518
I1
sS'bolsita'
p519
I2
sS'actitud'
p520
I1
sS'Closer'
p521
I2
sS'and'
p522
I3
sS'Sand_Castle'
p523
I1
sS'perspicacia'
p524
I1
sS'evoluci\xc3\xb3n'
p525
I1
sS'peyote'
p526
I1
sS'cuadrados'
p527
I1
sS'durante'
p528
I11
sS'cambian'
p529
I1
sS'Pron\xc3\xb3stico'
p530
I5
sS'camisa'
p531
I2
sS'romana'
p532
I1
sS'tarea'
p533
I1
sS'lejos_de'
p534
I1
sS'100'
p535
I1
sS'Afortunadamente'
p536
I1
sS'suelen'
p537
I1
sS'villano'
p538
I5
sS'interesa'
p539
I1
sS'Ciencia-Ficci\xc3\xb3n'
p540
I1
sS'grupos'
p541
I1
sS'cometieron'
p542
I1
sS'.'
p543
I779
sS'mundialmente'
p544
I1
sS'Deadwood'
p545
I1
sS'John_Lasseter'
p546
I1
sS'carentes'
p547
I1
sS'recomiendo'
p548
I2
sS'desaf\xc3\xado'
p549
I2
sS'caf\xc3\xa9'
p550
I1
sS'sorprendente'
p551
I2
sS'cueva'
p552
I1
sS'lleg\xc3\xb3'
p553
I3
sS'Dave_Bautista'
p554
I2
sS'DC'
p555
I1
sS'pista'
p556
I1
sS'gobierno'
p557
I1
sS'ins\xc3\xadpido'
p558
I1
sS'Misery'
p559
I1
sS'sorprendi\xc3\xb3'
p560
I3
sS'Completan'
p561
I7
sS'ins\xc3\xadpida'
p562
I2
sS'encarnizada'
p563
I1
sS'establecimiento'
p564
I1
sS'gracias'
p565
I1
sS'aseguro'
p566
I2
sS'asegura'
p567
I1
sS'Batallas_\xc3\x8dntimas'
p568
I2
sS'encontrar'
p569
I6
sS'seran'
p570
I1
sS'consolidar'
p571
I1
sS'adolescente'
p572
I8
sS'formas'
p573
I2
sS'unos'
p574
I8
sS'tomas'
p575
I2
sS'gu\xc3\xada'
p576
I1
sS'ofreciendo'
p577
I1
sS'is'
p578
I1
sS'ir'
p579
I8
sS'Noah_Wyle'
p580
I1
sS'Paul_T._Anderson'
p581
I1
sS'recursos'
p582
I1
sS'marco'
p583
I2
sS'vestiduras'
p584
I1
sS'in'
p585
I7
sS'dudosa'
p586
I2
sS'Cuarta'
p587
I2
sS'exponentes'
p588
I2
sS'Lambert_Wilson'
p589
I1
sS'europeas'
p590
I1
sS'bello'
p591
I2
sS'construye'
p592
I1
sS'uni\xc3\xb3n'
p593
I3
sS'Geklapper'
p594
I1
sS'fascinaci\xc3\xb3n'
p595
I1
sS'diferencia'
p596
I2
sS'astuto'
p597
I2
sS'Amelie'
p598
I2
sS'combatir'
p599
I1
sS'machacado'
p600
I1
sS'ello'
p601
I5
sS'memoria'
p602
I1
sS'mujeres'
p603
I11
sS'buscando'
p604
I1
sS'All\xc3\xad'
p605
I1
sS'atrapar'
p606
I1
sS'morenazo'
p607
I1
sS'triste'
p608
I2
sS'aprovechando'
p609
I1
sS'desfigurado'
p610
I1
sS'Persia'
p611
I2
sS'topa'
p612
I2
sS'Tijuana'
p613
I2
sS'hacer'
p614
I26
sS'Va'
p615
I1
sS'Tigre_de_Santa_Julia'
p616
I1
sS'nefastas'
p617
I1
sS'pel\xc3\xadcula'
p618
I57
sS'academia'
p619
I1
sS'relacionado'
p620
I1
sS'masoquista'
p621
I1
sS'exponiendo'
p622
I1
sS'hacen'
p623
I8
sS'frutos'
p624
I1
sS'promete'
p625
I5
sS'gigolo'
p626
I1
sS'esperanzadora'
p627
I2
sS'sobreexplotaci\xc3\xb3n'
p628
I1
sS'destacan'
p629
I1
sS'existencialismos'
p630
I1
sS'acuapulmon'
p631
I1
sS'aferrada'
p632
I1
sS'mientras'
p633
I10
sS'consecuencias'
p634
I1
sS'destacar'
p635
I1
sS'enterrar'
p636
I1
sS'Cinepolis_La'
p637
I1
sS'sumando'
p638
I1
sS'han'
p639
I18
sS'mediotraje'
p640
I1
sS'Oscar'
p641
I20
sS'Milla_Jovovich'
p642
I1
sS'cantos'
p643
I1
sS'entera'
p644
I1
sS'seducir'
p645
I2
sS'copyrights'
p646
I1
sS'chuleados'
p647
I1
sS'formando'
p648
I1
sS'siniestra'
p649
I1
sS'recitado'
p650
I1
sS'pr\xc3\xa1ctica'
p651
I1
sS'sencillamente'
p652
I1
sS'realistas'
p653
I2
sS'esconden'
p654
I1
sS'esconder'
p655
I1
sS'embelesados'
p656
I1
sS'innovadora'
p657
I1
sS'coros'
p658
I1
sS'redenci\xc3\xb3n'
p659
I4
sS'conocida'
p660
I2
sS'negar'
p661
I1
sS'pausado'
p662
I1
sS'abandonar'
p663
I1
sS'abandonan'
p664
I1
sS'Imaginen'
p665
I1
sS'Prince'
p666
I2
sS'creen'
p667
I7
sS'ola'
p668
I2
sS'old'
p669
I1
sS'vagones'
p670
I1
sS'200'
p671
I1
sS'enigm\xc3\xa1tico'
p672
I1
sS'pusieron'
p673
I1
sS'hablar'
p674
I1
sS'encarnado'
p675
I1
sS'Estas'
p676
I2
sS'Aqu\xc3\xad'
p677
I7
sS'sueltos'
p678
I1
sS'creer'
p679
I3
sS'carteleras'
p680
I3
sS'Name'
p681
I1
sS'ansioso'
p682
I1
sS'sin_pena_ni_gloria'
p683
I2
sS'decay\xc3\xb3'
p684
I1
sS'consiguen'
p685
I1
sS'creativo'
p686
I1
sS'for'
p687
I1
sS'reci\xc3\xa9n'
p688
I2
sS'entretenida'
p689
I2
sS'chut\xc3\xa9'
p690
I1
sS'23_de_Julio'
p691
I1
sS'satisfacci\xc3\xb3n'
p692
I1
sS'ni\xc3\xb1ote'
p693
I1
sS't\xc3\xa9cnicos'
p694
I2
sS'I_Robot'
p695
I1
sS'dice'
p696
I82
sS'bola'
p697
I4
sS'idiomas'
p698
I1
sS'Mark_Strong'
p699
I3
sS'Robin_Hood'
p700
I1
sS'refieren'
p701
I1
sS'Dakota'
p702
I1
sS'revalorada'
p703
I1
sS'colectiva'
p704
I2
sS'pinches'
p705
I1
sS'producciones'
p706
I8
sS'delito'
p707
I1
sS'alterado'
p708
I1
sS'colectivo'
p709
I2
sS'actuaci\xc3\xb3n'
p710
I8
sS'Repo_Men'
p711
I1
sS'iniciaron'
p712
I1
sS'dif\xc3\xadcil'
p713
I2
sS'c\xc3\xb3modos'
p714
I1
sS'ajustados'
p715
I1
sS'adicci\xc3\xb3n'
p716
I1
sS'insufribles'
p717
I2
sS'exhibida'
p718
I1
sS'o'
p719
I46
sS'bandas'
p720
I2
sS'meollo'
p721
I1
sS'hicieron'
p722
I1
sS'Despu\xc3\xa9s'
p723
I1
sS'Cameron'
p724
I1
sS'Dichas'
p725
I1
sS'decidi\xc3\xb3'
p726
I2
sS'Irlanda'
p727
I1
sS'tecnologia'
p728
I1
sS'reproductiva'
p729
I1
sS'reservado'
p730
I1
sS'quemen'
p731
I1
sS'situaci\xc3\xb3n'
p732
I5
sS'Scotland'
p733
I1
sS'Clint_Eastwood'
p734
I2
sS'son'
p735
I32
sS't\xc3\xa9cnica'
p736
I2
sS'quiero'
p737
I1
sS'estudiantes'
p738
I3
sS'anecd\xc3\xb3tico'
p739
I1
sS'valido'
p740
I1
sS'soy'
p741
I4
sS'decente'
p742
I4
sS'terminaran'
p743
I1
sS't\xc3\xa9cnico'
p744
I2
sS'pol\xc3\xadtica'
p745
I1
sS'Dr._Parnassus'
p746
I2
sS'serv\xc3\xadan'
p747
I1
sS'verdaderamente'
p748
I3
sS'encanto'
p749
I1
sS'Jason_Winer'
p750
I1
sS'editor'
p751
I1
sS'cont\xc3\xb3'
p752
I1
sS'encanta'
p753
I4
sS'Chuck_Hogan'
p754
I1
sS'medievo'
p755
I2
sS'foro'
p756
I1
sS'ellos'
p757
I10
sS'Fans_de_Sof\xc3\xada_Coppola'
p758
I1
sS'registrados'
p759
I1
sS'talento'
p760
I1
sS'chambeador'
p761
I1
sS'seguir'
p762
I4
sS'predecesora'
p763
I3
sS'confeccionar'
p764
I1
sS'nominada'
p765
I3
sS'racistas'
p766
I1
sS'd\xc3\xa9bil'
p767
I1
sS'digna'
p768
I3
sS'Will_&_Grace'
p769
I1
sS'peso'
p770
I2
sS'condecorado'
p771
I1
sS'afectan'
p772
I1
sS'buscaran'
p773
I1
sS'im\xc3\xa1genes'
p774
I1
sS'Baby_Boss'
p775
I1
sS'cosmos'
p776
I1
sS'condecorada'
p777
I1
sS's\xc3\xbabita'
p778
I1
sS'Golpe'
p779
I1
sS'Nemo'
p780
I1
sS'provee'
p781
I1
sS'Jack_Wilson'
p782
I1
sS'incomodando'
p783
I1
sS'sale'
p784
I4
sS'condenan'
p785
I1
sS'exterminaci\xc3\xb3n'
p786
I2
sS'Personas'
p787
I1
sS'sumergir'
p788
I2
sS'mediocre'
p789
I4
sS'respondi\xc3\xb3'
p790
I1
sS'Sin'
p791
I19
sS'estatuilla'
p792
I1
sS'tarde'
p793
I1
sS'leer'
p794
I2
sS'saber'
p795
I3
sS'Wooow'
p796
I2
sS'caricaturescos'
p797
I1
sS'televisivas'
p798
I4
sS'aseguran'
p799
I1
sS'actor'
p800
I21
sS'actos'
p801
I1
sS'Nolan'
p802
I2
sS'digital'
p803
I1
sS'leen'
p804
I1
sS'p\xc3\xadcara'
p805
I1
sS'Ron_Perlman'
p806
I1
sS'peripecias'
p807
I1
sS'decidieron'
p808
I1
sS'hermosuras'
p809
I1
sS'aburridos'
p810
I1
sS'Arnold'
p811
I4
sS'optar'
p812
I1
sS'rodar'
p813
I1
sS'modelo'
p814
I1
sS'ejercido'
p815
I1
sS'superfluo'
p816
I1
sS'dicha'
p817
I4
sS'traves\xc3\xadas'
p818
I1
sS'obras'
p819
I10
sS'p\xc3\xa9simos'
p820
I1
sS'logra'
p821
I6
sS'Hoult'
p822
I1
sS'logro'
p823
I1
sS'dicho'
p824
I4
sS'Mucho'
p825
I1
sS'motivador'
p826
I1
sS'incluida'
p827
I1
sS'rockera'
p828
I1
sS'embajadores'
p829
I1
sS'pior'
p830
I1
sS'incluido'
p831
I2
sS'detective'
p832
I2
sS'apta'
p833
I1
sS'psic\xc3\xb3patas'
p834
I1
sS'histri\xc3\xb3nicas'
p835
I1
sS'despide'
p836
I3
sS'Toby_Genkel'
p837
I1
sS'tienda'
p838
I1
sS'dejando'
p839
I1
sS'entrevista'
p840
I2
sS'tal_y_como'
p841
I1
sS'maldito'
p842
I1
sS'menor'
p843
I2
sS'menos'
p844
I18
sS'cin\xc3\xa9filos'
p845
I10
sS'primer'
p846
I14
sS'postulaba'
p847
I1
sS'mesero'
p848
I1
sS'veterano'
p849
I2
sS'algunas'
p850
I6
sS'ver'
p851
I51
sS'd\xc3\xa9'
p852
I1
sS'torna'
p853
I2
sS'vez'
p854
I22
sS'veterana'
p855
I1
sS'narrativamente'
p856
I2
sS'Yaoko_Namada'
p857
I1
sS'decir'
p858
I10
sS'vea'
p859
I3
sS'ven'
p860
I1
sS'veo'
p861
I2
sS'Perro_Duro_de_Matar'
p862
I1
sS'macho'
p863
I1
sS'noticia'
p864
I1
sS'me'
p865
I54
sS'ausentes'
p866
I1
sS'queridos'
p867
I4
sS'olvidar'
p868
I2
sS'capit\xc3\xa1n'
p869
I1
sS'sonoro'
p870
I1
sS'caos'
p871
I1
sS'fantas\xc3\xada'
p872
I2
sS'lastimosa'
p873
I1
sS'previo'
p874
I2
sS'ojos'
p875
I3
sS'organizaci\xc3\xb3n'
p876
I1
sS'lastimoso'
p877
I1
sS'estilos'
p878
I1
sS'sonora'
p879
I5
sS'dio'
p880
I10
sS'did'
p881
I1
sS'die'
p882
I1
sS'pelele'
p883
I1
sS'aventura'
p884
I8
sS'Inexplicable'
p885
I1
sS'eliminar'
p886
I2
sS'somos'
p887
I5
sS'Salma_Hayek'
p888
I1
sS'querer'
p889
I1
sS'pu\xc3\xb1o'
p890
I2
sS'agentes'
p891
I4
sS'Tan'
p892
I1
sS'decadente'
p893
I1
sS'de_el_otro_lado'
p894
I1
sS'Oscares_Helen_Mirren'
p895
I1
sS'Francia-Polonia'
p896
I1
sS'concepto'
p897
I1
sS'Chris_Bender'
p898
I1
sS'comprados'
p899
I1
sS'Boogey_Man'
p900
I1
sS'Phantom_Menace'
p901
I1
sS'boca'
p902
I4
sS'demoledora'
p903
I1
sS'Shakespeare'
p904
I1
sS'Festivales'
p905
I1
sS'Se\xc3\xb1ores'
p906
I1
sS'escenarios'
p907
I1
sS'piensa'
p908
I2
sS'buz\xc3\xb3n'
p909
I2
sS'One_Hit_Wonder'
p910
I1
sS'Tambi\xc3\xa9n'
p911
I5
sS'Guardianes'
p912
I1
sS'Francis'
p913
I1
sS'permita'
p914
I2
sS'S\xc3\xad'
p915
I1
sS'agosto'
p916
I1
sS'Favreau'
p917
I1
sS'Mi'
p918
I4
sS'principales'
p919
I1
sS'pregunta'
p920
I4
sS'brillante'
p921
I2
sS'O'
p922
I3
sS'Dami\xc3\xa1n_Alc\xc3\xa1zar'
p923
I1
sS'viaja'
p924
I2
sS'blockbusters'
p925
I1
sS'vengar'
p926
I2
sS'viaje'
p927
I3
sS'Warner'
p928
I1
sS'alto'
p929
I1
sS'mitolog\xc3\xada'
p930
I1
sS'hab\xc3\xada'
p931
I4
sS'ferrocarril'
p932
I1
sS'despedidas'
p933
I1
sS'The_King'
p934
I1
sS'mism\xc3\xadsimo'
p935
I5
sS'sucediendo'
p936
I1
sS'ciencia-ficci\xc3\xb3n'
p937
I1
sS'asegurando'
p938
I1
sS'vientres'
p939
I1
sS'Antes'
p940
I1
sS'sonidistas'
p941
I1
sS'miembro'
p942
I1
sS'escorias'
p943
I1
sS'derrumbar'
p944
I1
sS'Max_Minghella'
p945
I1
sS'americana'
p946
I2
sS'Hulk'
p947
I1
sS'Atonement'
p948
I1
sS'epopeyas'
p949
I1
sS'Aterrorizar'
p950
I1
sS'Jackie_Chan'
p951
I2
sS'Animado'
p952
I1
sS'siempre'
p953
I18
sS'recargados'
p954
I1
sS'dudo'
p955
I1
sS'duda'
p956
I23
sS'The_Lives'
p957
I2
sS'nadie'
p958
I7
sS'filme'
p959
I3
sS'podido'
p960
I1
sS'curioso'
p961
I5
sS'animaron'
p962
I1
sS'films'
p963
I12
sS'clasificaci\xc3\xb3n'
p964
I1
sS'suceder'
p965
I1
sS'cochinada'
p966
I1
sS'agringa'
p967
I1
sS'inocencia'
p968
I1
sS'malas'
p969
I1
sS'inh\xc3\xb3spito'
p970
I1
sS'Ricardo_Darin'
p971
I1
sS'beneficio'
p972
I3
sS'novatez'
p973
I1
sS'a\xc3\xb1os'
p974
I27
sS'encubierto'
p975
I1
sS'visual'
p976
I1
sS'libera'
p977
I1
sS'virtud'
p978
I1
sS'recorriendo'
p979
I1
sS'cuanto'
p980
I1
sS'cat\xc3\xb3licos'
p981
I1
sS'protagonizado'
p982
I1
sS'psic\xc3\xb3pata'
p983
I1
sS'venganza'
p984
I3
sS'Gondry'
p985
I1
sS'incre\xc3\xadble'
p986
I4
sS'recuerden'
p987
I1
sS'melodrama'
p988
I1
sS'protagonizada'
p989
I4
sS'Rio_De_Janeiro'
p990
I1
sS'in\xc3\xbatil'
p991
I2
sS'ambos'
p992
I1
sS'Bowie_Jr.'
p993
I1
sS'Thriller'
p994
I1
sS'escandalizarse'
p995
I1
sS'problemas'
p996
I3
sS'gorda'
p997
I1
sS'deformes'
p998
I1
sS'segmentos'
p999
I1
sS'Marilyn_Uribe'
p1000
I2
sS'nombrar'
p1001
I1
sS'tirar'
p1002
I2
sS'coraz\xc3\xb3n'
p1003
I4
sS's\xc3\xadmbolos'
p1004
I1
sS'apostar'
p1005
I2
sS'volvi\xc3\xb3'
p1006
I3
sS'voces'
p1007
I6
sS'sindicato'
p1008
I1
sS'Mmmm'
p1009
I1
sS'especialito'
p1010
I2
sS'Damon'
p1011
I1
sS'apunta'
p1012
I1
sS'Diego_Luna'
p1013
I1
sS'Luis_Tosar'
p1014
I1
sS'bastante'
p1015
I6
sS'Bill_Nighy'
p1016
I1
sS'asome'
p1017
I1
sS'dosis'
p1018
I2
sS'absurdo'
p1019
I2
sS'colocar'
p1020
I1
sS'Who'
p1021
I1
sS'aquel'
p1022
I6
sS'Agarren'
p1023
I1
sS'innegable'
p1024
I2
sS'pura'
p1025
I2
sS'toques'
p1026
I1
sS'llega'
p1027
I8
sS'estrictos'
p1028
I1
sS'maestro'
p1029
I3
sS'opci\xc3\xb3n'
p1030
I4
sS'junto_a'
p1031
I1
sS'mas'
p1032
I37
sS'mar'
p1033
I1
sS'Aceptemos'
p1034
I1
sS'extra\xc3\xb1os'
p1035
I2
sS'detalles'
p1036
I2
sS'pretenciosa'
p1037
I1
sS'culpables'
p1038
I1
sS'causante'
p1039
I3
sS'Syverson'
p1040
I1
sS'dato'
p1041
I1
sS'truenos'
p1042
I1
sS'Best-Seller'
p1043
I1
sS'Mixtape_Vol.'
p1044
I1
sS'Pale_Rider'
p1045
I1
sS'mal'
p1046
I8
sS'destructiva'
p1047
I1
sS'entendidos'
p1048
I1
sS'ajenas'
p1049
I1
sS'L\xc3\xb3pez_Doriga'
p1050
I1
sS'natural'
p1051
I2
sS'f\xc3\xadsicos'
p1052
I1
sS'su'
p1053
I269
sS'truco'
p1054
I1
sS'jud\xc3\xados'
p1055
I1
sS'si'
p1056
I57
sS'escuincle'
p1057
I1
sS'aleccionadoras'
p1058
I1
sS'mezcla'
p1059
I1
sS'manga'
p1060
I1
sS'se'
p1061
I370
sS'Narcos_de_Netflix'
p1062
I1
sS'lloremos'
p1063
I1
sS'principio'
p1064
I5
sS'Lisa_Chodolenko'
p1065
I1
sS'orfanato'
p1066
I2
sS'gradual'
p1067
I1
sS'Vual\xc3\xa1'
p1068
I1
sS'experimento'
p1069
I3
sS'augura'
p1070
I1
sS'inmerso'
p1071
I1
sS'trancazos'
p1072
I1
sS'hombros'
p1073
I1
sS'jugando'
p1074
I2
sS'inc\xc3\xb3modas'
p1075
I1
sS'influenciados'
p1076
I1
sS'posibles'
p1077
I1
sS'conoce'
p1078
I1
sS'\xc3\x81frica'
p1079
I1
sS'ganaron'
p1080
I1
sS'esparcidos'
p1081
I1
sS'aliens'
p1082
I1
sS'entra\xc3\xb1ables'
p1083
I2
sS'mansi\xc3\xb3n'
p1084
I2
sS'Repite'
p1085
I2
sS'dej\xc3\xb3'
p1086
I5
sS'Christopher_Lloyd'
p1087
I1
sS'acompa\xc3\xb1a'
p1088
I2
sS'diablos'
p1089
I1
sS'temen'
p1090
I1
sS'documentalista'
p1091
I1
sS'recipiente'
p1092
I1
sS'Disneylandia'
p1093
I1
sS'asesinar'
p1094
I1
sS'fuerte'
p1095
I4
sS's\xc3\xbaper'
p1096
I3
sS'desolado'
p1097
I1
sS'algunas_veces'
p1098
I1
sS'Sevilla'
p1099
I1
sS'Jennifer_Garner'
p1100
I1
sS'Jes\xc3\xbas_de_Veracruz'
p1101
I1
sS'presum\xc3\xada'
p1102
I1
sS'Kit_Harrington'
p1103
I1
sS'aprendidas'
p1104
I1
sS'roca'
p1105
I1
sS'prometedora'
p1106
I1
sS'condescendiente'
p1107
I1
sS'estrenar'
p1108
I3
sS'The_Reign'
p1109
I1
sS'Brolin'
p1110
I1
sS'bellas'
p1111
I1
sS'se\xc3\xb1al\xc3\xb3'
p1112
I1
sS'proclama'
p1113
I1
sS'amistosa'
p1114
I1
sS'puntapi\xc3\xa9'
p1115
I1
sS'chiste'
p1116
I1
sS'emerger'
p1117
I1
sS'galanes'
p1118
I1
sS'de_lo_lindo'
p1119
I1
sS'gamers'
p1120
I1
sS'Aislin_Derbez'
p1121
I1
sS'Stephen_Dorff'
p1122
I1
sS'otorga'
p1123
I1
sS'poco'
p1124
I15
sS'miles'
p1125
I3
sS'sugerir'
p1126
I1
sS'Joe'
p1127
I1
sS'aislada'
p1128
I1
sS'vagabundo'
p1129
I1
sS'formula'
p1130
I1
sS'afable'
p1131
I1
sS'poca'
p1132
I5
sS'\xc3\xa1mbito'
p1133
I1
sS'circunstancias'
p1134
I3
sS'ten\xc3\xadan'
p1135
I2
sS'Rose_McGowan'
p1136
I1
sS'criminales'
p1137
I2
sS'departamento'
p1138
I1
sS'amotinados'
p1139
I1
sS'Queremos'
p1140
I1
sS'gastar\xc3\xa9'
p1141
I1
sS'fregadera'
p1142
I1
sS'esencia'
p1143
I2
sS'amigos'
p1144
I2
sS'adeptas'
p1145
I1
sS'sabor'
p1146
I1
sS'vi\xc3\xb3'
p1147
I1
sS'Guerra'
p1148
I1
sS'telenovela'
p1149
I1
sS'Por_otro_lado'
p1150
I1
sS'provocadora'
p1151
I1
sS'venido'
p1152
I3
sS'derrocar'
p1153
I1
sS'propios'
p1154
I2
sS'Whiplash'
p1155
I1
sS'Drew_Barrimore'
p1156
I1
sS'Vampiros'
p1157
I1
sS'promulga'
p1158
I1
sS'mucha'
p1159
I4
sS'mafufadas'
p1160
I1
sS'browska'
p1161
I1
sS'Eternal_Sunshine'
p1162
I1
sS'mucho'
p1163
I11
sS'voto'
p1164
I1
sS'estadounidense'
p1165
I2
sS'profanas'
p1166
I1
sS'profanar'
p1167
I1
sS'Cr\xc3\xb3nicas'
p1168
I1
sS'enemigo'
p1169
I5
sS'city'
p1170
I1
sS'promisorio'
p1171
I1
sS'renovada'
p1172
I1
sS'tomando'
p1173
I2
sS'inexpresividad'
p1174
I1
sS'inconclusa'
p1175
I1
sS'The_Prestige'
p1176
I1
sS'altercados'
p1177
I1
sS't\xc3\xa9cnicas'
p1178
I1
sS'2'
p1179
I6
sS'cita'
p1180
I1
sS'contrata'
p1181
I1
sS'igualable'
p1182
I1
sS'renovar'
p1183
I2
sS'slasher'
p1184
I1
sS'bromita'
p1185
I1
sS'Ray_Winstone'
p1186
I1
sS'descabellada'
p1187
I1
sS'Toni_Collete'
p1188
I1
sS'interesantes'
p1189
I1
sS'absolutamente'
p1190
I2
sS'llegar\xc3\xada'
p1191
I1
sS'desdibujado'
p1192
I1
sS'Chris_Evans'
p1193
I1
sS'10'
p1194
I2
sS'12'
p1195
I1
sS'cientolog\xc3\xada'
p1196
I1
sS'fallecido'
p1197
I1
sS'16'
p1198
I1
sS'19'
p1199
I1
sS'simplista'
p1200
I1
sS'poder'
p1201
I10
sS'reunidos'
p1202
I1
sS'opini\xc3\xb3n'
p1203
I1
sS'lesbianas'
p1204
I1
sS'futuro'
p1205
I6
sS'Tyrese_Gibson'
p1206
I1
sS'Alfred_Molina'
p1207
I1
sS'aberrantes'
p1208
I1
sS'temporada'
p1209
I3
sS'Ken_Marino'
p1210
I1
sS'escapatoria'
p1211
I1
sS'contar'
p1212
I4
sS'siendo'
p1213
I9
sS'controlado'
p1214
I1
sS'Pedro_Pascal'
p1215
I1
sS'qued\xc3\xb3'
p1216
I4
sS'adivinaron'
p1217
I2
sS'sant\xc3\xadsima'
p1218
I1
sS'pasamos'
p1219
I1
sS'nazi'
p1220
I1
sS'intercional'
p1221
I1
sS'Padre_Tommasso'
p1222
I1
sS'Shaun'
p1223
I1
sS'taquilla'
p1224
I2
sS'asquerosa'
p1225
I4
sS'103_minutotes'
p1226
I1
sS'mueva'
p1227
I1
sS'convirtiera'
p1228
I1
sS'brillantes'
p1229
I1
sS'enga\xc3\xb1a'
p1230
I1
sS'dirigiendo'
p1231
I4
sS'nota'
p1232
I1
sS'jovenzuelos'
p1233
I1
sS'torbellino'
p1234
I1
sS'dan_de_alta'
p1235
I1
sS'oculto'
p1236
I2
sS'forzamiento'
p1237
I1
sS'boleto'
p1238
I1
sS'formulas'
p1239
I1
sS'Angelina_Jolie'
p1240
I2
sS'normal'
p1241
I2
sS'Prometehus'
p1242
I1
sS'obligado'
p1243
I2
sS'Cuidado'
p1244
I1
sS'aplaudido'
p1245
I1
sS'religiones'
p1246
I1
sS'cr\xc3\xadticos'
p1247
I1
sS'cualquier'
p1248
I6
sS'exploraciones'
p1249
I1
sS'clich\xc3\xa9'
p1250
I5
sS'merecedor'
p1251
I1
sS'merece'
p1252
I2
sS'desolaci\xc3\xb3n'
p1253
I1
sS'unidad'
p1254
I3
sS'Srita'
p1255
I1
sS'Chris_Pratt'
p1256
I1
sS'The_Manchurian_Candidate'
p1257
I1
sS'paquetote'
p1258
I1
sS'digno'
p1259
I1
sS'sala'
p1260
I4
sS'por_obra_de'
p1261
I1
sS'Finding_Nemo'
p1262
I1
sS'acabado'
p1263
I1
sS'buceo'
p1264
I2
sS'despunt\xc3\xb3'
p1265
I1
sS'actividad'
p1266
I1
sS'dolor'
p1267
I3
sS'gui\xc3\xb3n'
p1268
I4
sS'carism\xc3\xa1ticos'
p1269
I3
sS'emputada'
p1270
I1
sS'Pat\xc3\xa1n'
p1271
I1
sS'idioteces'
p1272
I2
sS'compadres'
p1273
I1
sS'aprovechados'
p1274
I1
sS'preciso'
p1275
I1
sS'cobro'
p1276
I1
sS'reliquia'
p1277
I1
sS'estoy'
p1278
I2
sS'Ciertamente'
p1279
I1
sS'adolecente'
p1280
I2
sS'chupasangre'
p1281
I1
sS'imaginen'
p1282
I2
sS'dado_a_conocer'
p1283
I1
sS'estos'
p1284
I19
sS'emoci\xc3\xb3n'
p1285
I5
sS'dec\xc3\xada'
p1286
I1
sS'agradece'
p1287
I1
sS'lazos'
p1288
I1
sS'Ocre'
p1289
I1
sS'biblioteca'
p1290
I1
sS'espagueti'
p1291
I1
sS'llevar_a_cabo'
p1292
I1
sS'Cinco'
p1293
I3
sS'torpe'
p1294
I1
sS'inofensivo'
p1295
I1
sS'Translation'
p1296
I2
sS'art\xc3\xadfice'
p1297
I1
sS'atraiga'
p1298
I1
sS'varios'
p1299
I6
sS'hermanos'
p1300
I2
sS'grafica'
p1301
I2
sS'caprichito'
p1302
I2
sS'Spotless_Mind'
p1303
I1
sS'Joel_Kinnaman'
p1304
I1
sS'guarden'
p1305
I1
sS'genera'
p1306
I1
sS'interpretara'
p1307
I1
sS'teatro'
p1308
I1
sS'The_Constant_Gardner'
p1309
I1
sS'futilidad'
p1310
I1
sS'teol\xc3\xb3gica'
p1311
I1
sS'darketa'
p1312
I1
sS'argumentales'
p1313
I1
sS'invita'
p1314
I2
sS'planea'
p1315
I2
sS'bomba'
p1316
I2
sS'dram\xc3\xa1tico'
p1317
I2
sS'Nicolas_Cage'
p1318
I2
sS'Premios_de_Cine_Europeos'
p1319
I1
sS'deudora'
p1320
I1
sS'bebida'
p1321
I2
sS'silencio'
p1322
I3
sS'tesoro'
p1323
I2
sS'Florian_Henckel'
p1324
I1
sS'Gordon-Levitt'
p1325
I1
sS'destrozadas'
p1326
I1
sS'ins\xc3\xadpidas'
p1327
I1
sS'Eames'
p1328
I1
sS'impresionantemente'
p1329
I1
sS'inmejorable'
p1330
I1
sS'sean'
p1331
I1
sS'corre'
p1332
I2
sS'manosearon'
p1333
I1
sS'100_%'
p1334
I3
sS'Death_Proof'
p1335
I1
sS'wonder'
p1336
I1
sS'vigiladas'
p1337
I1
sS'gags'
p1338
I2
sS'homenaje'
p1339
I1
sS'contenido'
p1340
I1
sS'Joanna_Kulig'
p1341
I1
sS'certeza'
p1342
I1
sS'Alc\xc3\xa1zar'
p1343
I1
sS'tonter\xc3\xadas'
p1344
I1
sS'P\xc3\xa9simo'
p1345
I1
sS'un'
p1346
I363
sS'literario'
p1347
I1
sS'Bajo'
p1348
I2
sS'desequilibrado'
p1349
I1
sS'llorar'
p1350
I1
sS'vender'
p1351
I1
sS'reading'
p1352
I1
sS'podr\xc3\xadan'
p1353
I3
sS'Nominada'
p1354
I1
sS'caricaturas'
p1355
I1
sS'Russell_Brand'
p1356
I2
sS'tus'
p1357
I1
sS'malt\xc3\xa9s'
p1358
I1
sS'libreto'
p1359
I1
sS'punto'
p1360
I2
sS'conciente'
p1361
I1
sS'chacho'
p1362
I1
sS'Ellen_Page'
p1363
I1
sS'podr\xc3\xa1n'
p1364
I1
sS'adultos'
p1365
I2
sS'millonario'
p1366
I1
sS'Alien'
p1367
I4
sS'intenso'
p1368
I1
sS'cumplir'
p1369
I2
sS'empezar'
p1370
I2
sS's'
p1371
I10
sS'disgusto'
p1372
I1
sS'remake'
p1373
I12
sS'atreven'
p1374
I1
sS'gente'
p1375
I5
sS'triunfador'
p1376
I1
sS'mano'
p1377
I1
sS'histri\xc3\xb3n'
p1378
I2
sS't\xc3\xadpico'
p1379
I2
sS'no_s\xc3\xb3lo'
p1380
I2
sS'engendros'
p1381
I2
sS'refiere'
p1382
I2
sS'acostumbrados'
p1383
I2
sS'considera'
p1384
I1
sS'anti'
p1385
I3
sS'alcanzar'
p1386
I3
sS'ante'
p1387
I16
sS'Horton'
p1388
I1
sS'existir\xc3\xa1'
p1389
I1
sS'apaciguar'
p1390
I1
sS'Nathan_Fillion'
p1391
I1
sS'tercer'
p1392
I1
sS'Michelle_Monaghan'
p1393
I1
sS'The_Others'
p1394
I1
sS'bot\xc3\xb3'
p1395
I1
sS'Knigh'
p1396
I1
sS'sabiendo'
p1397
I1
sS'austriaco'
p1398
I1
sS'Inglorious_Basterds'
p1399
I1
sS'arte'
p1400
I11
sS'azares'
p1401
I1
sS'bolas'
p1402
I1
sS'qu\xc3\xa9'
p1403
I17
sS'venir'
p1404
I2
sS'atrever'
p1405
I1
sS'aquellos'
p1406
I4
sS'42_minutos'
p1407
I1
sS'ilegal'
p1408
I1
sS'partida'
p1409
I1
sS'j\xc3\xb3venes'
p1410
I3
sS'partido'
p1411
I1
sS'enfermiza'
p1412
I1
sS'personas'
p1413
I3
sS'recibiendo'
p1414
I1
sS'cantado'
p1415
I1
sS'Ateos_de_Am\xc3\xa9rica'
p1416
I1
sS't\xc3\xadpica'
p1417
I2
sS'escondido'
p1418
I1
sS'vomito'
p1419
I1
sS'Debra_Granik'
p1420
I1
sS'solidario'
p1421
I1
sS'Victor_Dryere'
p1422
I1
sS'conformar'
p1423
I2
sS'maleantes'
p1424
I1
sS'consumir\xc3\xa1n'
p1425
I1
sS'convencional'
p1426
I2
sS'mar.'
p1427
I1
sS'culmina'
p1428
I1
sS'Dany_Boon'
p1429
I1
sS'empobrecer'
p1430
I1
sS'Quantum'
p1431
I1
sS'horriblemente'
p1432
I1
sS'ascenso'
p1433
I2
sS'adentrar'
p1434
I1
sS'Venice'
p1435
I1
sS'encuentran'
p1436
I3
sS'hijas'
p1437
I1
sS'Gemma_Arterton'
p1438
I2
sS'veras'
p1439
I2
sS'Jaden_Smith'
p1440
I1
sS'cabalgata'
p1441
I1
sS'fama'
p1442
I3
sS'perseguido'
p1443
I1
sS'internacionale'
p1444
I1
sS'par'
p1445
I5
sS'argumento'
p1446
I6
sS'paz'
p1447
I2
sS'deber\xc3\xa1'
p1448
I4
sS'catalogada'
p1449
I1
sS'hecho'
p1450
I8
sS'Julia_Ducournau'
p1451
I1
sS'hecha'
p1452
I3
sS'Oscar_Se-ma-for_Estudios'
p1453
I1
sS'Machete'
p1454
I2
sS'unidimensional'
p1455
I1
sS'difunto'
p1456
I1
sS'Norman_Jewinson'
p1457
I1
sS'protag\xc3\xb3nico'
p1458
I9
sS'adem\xc3\xa1s'
p1459
I3
sS'batuta'
p1460
I3
sS'Acompa\xc3\xb1ado'
p1461
I1
sS'I'
p1462
I1
sS'emociones'
p1463
I2
sS'muestra'
p1464
I6
sS'Iron'
p1465
I1
sS'popularizada'
p1466
I1
sS'Interpretado'
p1467
I2
sS'alturas'
p1468
I1
sS'ahorita'
p1469
I1
sS'llegador'
p1470
I1
sS'paraje'
p1471
I1
sS'novela'
p1472
I9
sS'reflejado'
p1473
I1
sS'reacci\xc3\xb3n'
p1474
I1
sS'genio'
p1475
I1
sS'estafador'
p1476
I1
sS'Amo_Bruckheimer'
p1477
I1
sS'vean'
p1478
I4
sS'C\xc3\xb3mo'
p1479
I2
sS'tendr\xc3\xadan'
p1480
I1
sS'Reygadas'
p1481
I1
sS'summer'
p1482
I2
sS'cochinero'
p1483
I1
sS'VR_Awake'
p1484
I4
sS'cat\xc3\xb3lica'
p1485
I1
sS'211'
p1486
I2
sS'basamos'
p1487
I1
sS'investigaci\xc3\xb3n'
p1488
I2
sS'verdad'
p1489
I13
sS'recordaci\xc3\xb3n'
p1490
I1
sS'respetando'
p1491
I2
sS'habr\xc3\xa1'
p1492
I6
sS'Sorpresivo'
p1493
I2
sS'Caer\xc3\xa1n'
p1494
I1
sS'Rey_Arturo'
p1495
I1
sS'Yuma'
p1496
I2
sS'prostituci\xc3\xb3n'
p1497
I2
sS'Santo_Tom\xc3\xa1s'
p1498
I1
sS'ruido'
p1499
I1
sS'Agosto'
p1500
I1
sS'recias'
p1501
I1
sS'acostumbra'
p1502
I1
sS'culpados'
p1503
I1
sS'espada'
p1504
I2
sS'4'
p1505
I13
sS'regalar'
p1506
I1
sS'poco_a_poco'
p1507
I1
sS'espiando'
p1508
I1
sS'girar\xc3\xa1'
p1509
I1
sS'quitado'
p1510
I1
sS'desaparici\xc3\xb3n'
p1511
I1
sS'impotencia'
p1512
I1
sS'por'
p1513
I279
sS'pos'
p1514
I1
sS'Lundgren'
p1515
I1
sS'inexplicable'
p1516
I1
sS'embarazos'
p1517
I1
sS'aspecto'
p1518
I3
sS'cargan'
p1519
I1
sS'existi\xc3\xb3'
p1520
I1
sS'suma'
p1521
I1
sS'compleja'
p1522
I2
sS'pr\xc3\xb3ximas'
p1523
I1
sS'comprensible'
p1524
I1
sS'neuronas'
p1525
I2
sS'hotel'
p1526
I1
sS'acabar'
p1527
I2
sS'Michael_Rooker'
p1528
I1
sS'cazarrecompensas'
p1529
I1
sS'antag\xc3\xb3nica'
p1530
I1
sS'participe'
p1531
I1
sS'incluyen'
p1532
I1
sS'cabo'
p1533
I1
sS'cabe'
p1534
I3
sS'divino'
p1535
I1
sS'visi\xc3\xb3n'
p1536
I4
sS'Nuestros'
p1537
I1
sS'pieza'
p1538
I1
sS'cristina'
p1539
I1
sS'interpretaba'
p1540
I1
sS'preparen'
p1541
I1
sS'p\xc3\xa1gina'
p1542
I1
sS'accidental'
p1543
I1
sS'conocimos'
p1544
I1
sS'colonial'
p1545
I1
sS'definir'
p1546
I1
sS'criticas'
p1547
I1
sS'criticar'
p1548
I1
sS'vale'
p1549
I7
sS'ritmo'
p1550
I5
sS'sangriento'
p1551
I1
sS'Mes'
p1552
I1
sS'perfectamente'
p1553
I1
sS'ser\xc3\xada'
p1554
I2
sS'T\xc3\xado_Sam'
p1555
I1
sS'mamarrachada'
p1556
I1
sS'm\xc3\xbasica'
p1557
I7
sS'cre\xc3\xadbles'
p1558
I1
sS'Dre'
p1559
I1
sS'franquicia'
p1560
I5
sS'enamorado'
p1561
I1
sS'Rambo'
p1562
I2
sS'favorito'
p1563
I4
sS'favorita'
p1564
I1
sS'hacer_frente'
p1565
I1
sS'pudiendo'
p1566
I1
sS'caricatura'
p1567
I1
sS'lector'
p1568
I3
sS'Esperen'
p1569
I3
sS'lucen'
p1570
I2
sS'Terminator'
p1571
I1
sS'desaparecidos'
p1572
I1
sS'Ni'
p1573
I3
sS'empresa'
p1574
I2
sS'film'
p1575
I37
sS'No'
p1576
I30
sS'recorrido'
p1577
I2
sS'Fuerza'
p1578
I1
sS'desorden'
p1579
I1
sS'monasterio'
p1580
I1
sS'homeless'
p1581
I1
sS'nave'
p1582
I1
sS'ayuda'
p1583
I6
sS'psicol\xc3\xb3gicas'
p1584
I1
sS'trabajar'
p1585
I3
sS'Casa_Universitaria_de_el_Libro'
p1586
I1
sS'Sofia_Coppola'
p1587
I1
sS'NO'
p1588
I1
sS'pretende'
p1589
I5
sS'bit\xc3\xa1cora'
p1590
I1
sS'proyectuchos'
p1591
I1
sS'aperrado'
p1592
I1
sS'matrimonio'
p1593
I1
sS'agujeros'
p1594
I1
sS'Die_Hard'
p1595
I1
sS'comerciales'
p1596
I3
sS'completa'
p1597
I3
sS'dormir'
p1598
I1
sS'Mejor_Documental'
p1599
I1
sS'haciendo'
p1600
I5
sS'largos'
p1601
I1
sS'violentos'
p1602
I1
sS'Melanie_Laurent'
p1603
I1
sS'completo'
p1604
I5
sS'escondan'
p1605
I1
sS'pensaron'
p1606
I1
sS'ileso'
p1607
I1
sS'gore'
p1608
I1
sS'millenial'
p1609
I1
sS'encantos'
p1610
I1
sS'Katarzyna_D'
p1611
I1
sS','
p1612
I1311
sS'dentadura'
p1613
I1
sS'solvente'
p1614
I1
sS'seleccionar'
p1615
I1
sS'sorpresivamente'
p1616
I1
sS'parchado'
p1617
I1
sS'tendr\xc3\xa1n'
p1618
I2
sS'Kurt_Russell'
p1619
I2
sS'Seguramente'
p1620
I3
sS'orgullosamente'
p1621
I1
sS'industria'
p1622
I10
sS'deporte'
p1623
I1
sS'disimular'
p1624
I1
sS'propias'
p1625
I1
sS'crear'
p1626
I1
sS'Margret'
p1627
I1
sS'planeta'
p1628
I2
sS'videos'
p1629
I1
sS'barb\xc3\xb3n'
p1630
I1
sS'mundo'
p1631
I30
sS'Nacional'
p1632
I2
sS'at'
p1633
I1
sS'pidi\xc3\xb3'
p1634
I1
sS'Philip_K._Dick'
p1635
I1
sS'crean'
p1636
I1
sS'madurez'
p1637
I2
sS'indiscretos'
p1638
I1
sS'Azules'
p1639
I1
sS'Ladd'
p1640
I2
sS'novedad'
p1641
I1
sS'h\xc3\xa1bitos'
p1642
I1
sS'resultar\xc3\xa1'
p1643
I1
sS'infiernos'
p1644
I1
sS'coment\xc3\xb3'
p1645
I2
sS'\xc3\x9altimamente'
p1646
I1
sS'Innegablemente'
p1647
I1
sS'inconstante'
p1648
I2
sS'percibimos'
p1649
I1
sS'metidos'
p1650
I1
sS'Scott'
p1651
I6
sS'infierno'
p1652
I2
sS'por_supuesto'
p1653
I2
sS'Brokeback_Mountain'
p1654
I5
sS'pedir'
p1655
I1
sS'narco'
p1656
I2
sS'2004'
p1657
I3
sS'muere'
p1658
I1
sS'Carla_Juri'
p1659
I1
sS'pierden'
p1660
I1
sS'realismo'
p1661
I1
sS'identificar\xc3\xada'
p1662
I1
sS'ingenio'
p1663
I2
sS'Sera'
p1664
I3
sS'llamadas'
p1665
I1
sS'La_Historia'
p1666
I1
sS'posible'
p1667
I6
sS'Jake_Gyllenhaal'
p1668
I5
sS'burda'
p1669
I1
sS'parejas'
p1670
I1
sS'The_Dark_Knight'
p1671
I3
sS'oportunidades'
p1672
I4
sS'Cinescopia_Son'
p1673
I1
sS'promotor'
p1674
I1
sS's\xc3\xb3lo'
p1675
I2
sS'oral'
p1676
I1
sS'original'
p1677
I9
sS'The_Box'
p1678
I2
sS'mezclan'
p1679
I1
sS'sensaci\xc3\xb3n'
p1680
I1
sS'transita'
p1681
I1
sS'Moon'
p1682
I1
sS'Pathfinder'
p1683
I1
sS'calcinado'
p1684
I1
sS'estrenar\xc3\xa1'
p1685
I1
sS'prima'
p1686
I5
sS'Presidente_de_VR_Awake'
p1687
I1
sS'tv'
p1688
I1
sS'tecnolog\xc3\xada'
p1689
I2
sS'tu'
p1690
I3
sS'to'
p1691
I3
sS'estructura'
p1692
I2
sS'humildes'
p1693
I1
sS'viajan'
p1694
I1
sS'sustancias'
p1695
I1
sS'te'
p1696
I7
sS'lanzar\xc3\xa1'
p1697
I1
sS'ta'
p1698
I1
sS'Jean-Michel'
p1699
I1
sS'Mission_Impossible_III'
p1700
I1
sS'Veamos'
p1701
I1
sS'llegue'
p1702
I1
sS'limpiar'
p1703
I2
sS'drama-thriller'
p1704
I1
sS'bestia'
p1705
I1
sS'Estar\xc3\xa1s'
p1706
I1
sS'Wolf'
p1707
I1
sS'tentaci\xc3\xb3n'
p1708
I1
sS'traer'
p1709
I3
sS'mando'
p1710
I1
sS'adorar\xc3\xa1n'
p1711
I1
sS'`'
p1712
I1
sS'creando'
p1713
I1
sS'Noah'
p1714
I1
sS'Murphy'
p1715
I3
sS'genialidad'
p1716
I1
sS'Junior'
p1717
I1
sS'presidente'
p1718
I2
sS'larga'
p1719
I1
sS'hermosa'
p1720
I2
sS'maravillosos'
p1721
I1
sS'Agata_Kulesza'
p1722
I1
sS'meses'
p1723
I4
sS'sano'
p1724
I1
sS'largo'
p1725
I4
sS'Emily_Blunt'
p1726
I1
sS'trio'
p1727
I1
sS'cazados'
p1728
I1
sS'pandilla'
p1729
I1
sS'homosexuales'
p1730
I1
sS'degeneraci\xc3\xb3n'
p1731
I1
sS'casi'
p1732
I7
sS'paso'
p1733
I12
sS'hice'
p1734
I1
sS'Qui\xc3\xa9n'
p1735
I1
sS'conjuga'
p1736
I1
sS'argumentos'
p1737
I4
sS'alcanza'
p1738
I6
sS'hartan'
p1739
I1
sS'viera'
p1740
I1
sS'huecas'
p1741
I1
sS'instrumentos'
p1742
I1
sS'cast'
p1743
I1
sS'favor'
p1744
I1
sS'Can\xc3\xadbal'
p1745
I1
sS'Jared_Leto'
p1746
I1
sS'exponen'
p1747
I1
sS'inolvidable'
p1748
I2
sS'largometrajes'
p1749
I2
sS'pecado'
p1750
I1
sS'xenomorfo'
p1751
I1
sS'situar'
p1752
I1
sS'estupidos'
p1753
I1
sS'liderado'
p1754
I1
sS'desempe\xc3\xb1o'
p1755
I4
sS'presos'
p1756
I1
sS'versi\xc3\xb3n'
p1757
I11
sS'K'
p1758
I1
sS'\xc3\x81vido'
p1759
I1
sS'Hablar'
p1760
I1
sS'Arthur'
p1761
I4
sS'varian'
p1762
I1
sS'aquello'
p1763
I2
sS'Luis_Fuentes_Pimentel'
p1764
I1
sS'transplantado'
p1765
I1
sS'aquella'
p1766
I3
sS'congelado'
p1767
I1
sS'monja'
p1768
I1
sS'Dev_Patel'
p1769
I1
sS'medico'
p1770
I1
sS'deseando'
p1771
I1
sS'trasladados'
p1772
I1
sS'brutal'
p1773
I1
sS'Vhadir'
p1774
I1
sS'Anne_Hathaway'
p1775
I1
sS'dicta'
p1776
I1
sS'escrib\xc3\xad'
p1777
I1
sS'social'
p1778
I1
sS'action'
p1779
I1
sS'Canal'
p1780
I1
sS'minutos'
p1781
I2
sS'Desgraciadamente'
p1782
I1
sS'Madres'
p1783
I1
sS'escuchar'
p1784
I1
sS'vio'
p1785
I1
sS'Aun'
p1786
I4
sS'escuchan'
p1787
I1
sS'diariamente'
p1788
I1
sS'National_Geographic'
p1789
I1
sS'corto'
p1790
I5
sS'pateen'
p1791
I1
sS'buenas'
p1792
I10
sS'otros'
p1793
I19
sS'corte'
p1794
I1
sS'iluminadores'
p1795
I1
sS'anochecer'
p1796
I1
sS'merecido'
p1797
I1
sS'nuevas'
p1798
I3
sS'mascarita'
p1799
I1
sS'Paul_Giamatti'
p1800
I1
sS'plagados'
p1801
I1
sS'Jonah_Hex'
p1802
I1
sS'diferente'
p1803
I1
sS'f\xc3\xadlmico'
p1804
I1
sS'turista'
p1805
I3
sS'arrebat\xc3\xb3'
p1806
I1
sS'prestigio'
p1807
I1
sS'ciencia'
p1808
I4
sS'hubiese'
p1809
I1
sS'oreja'
p1810
I1
sS'Rogen'
p1811
I2
sS'Barras'
p1812
I1
sS'escribi\xc3\xb3'
p1813
I1
sS'pobres'
p1814
I4
sS'psicolog\xc3\xada'
p1815
I2
sS'incluir'
p1816
I1
sS'seguidores'
p1817
I1
sS'James_Remar'
p1818
I1
sS'regreso'
p1819
I4
sS'encima_de'
p1820
I3
sS'guarda'
p1821
I1
sS'bajar'
p1822
I1
sS'guarde'
p1823
I1
sS'muri\xc3\xb3'
p1824
I1
sS'Proyecto_Marvel'
p1825
I1
sS'sarcasmo'
p1826
I2
sS'Hamlet'
p1827
I1
sS'malo'
p1828
I6
sS'universitarios'
p1829
I1
sS'En_vista_de'
p1830
I1
sS'setentera'
p1831
I1
sS'den'
p1832
I2
sS'novato'
p1833
I7
sS'novata'
p1834
I1
sS'Nos'
p1835
I4
sS'pecho'
p1836
I1
sS'mala'
p1837
I5
sS'Rachel_Weiz'
p1838
I1
sS'ritual'
p1839
I1
sS'idiotas'
p1840
I2
sS'preferir\xc3\xada'
p1841
I1
sS'f\xc3\xa9mina'
p1842
I1
sS'creciente'
p1843
I2
sS'crudos'
p1844
I1
sS'vampiros'
p1845
I6
sS'Vin_Diesel'
p1846
I3
sS'Modisto'
p1847
I2
sS'Fuera_de'
p1848
I2
sS'llegar\xc3\xa1n'
p1849
I1
sS'respectiva'
p1850
I1
sS'Mangold'
p1851
I1
sS'actuales'
p1852
I2
sS'amistad'
p1853
I1
sS'Fionna'
p1854
I1
sS'Previo'
p1855
I1
sS'acto'
p1856
I1
sS'Acaso'
p1857
I1
sS'procreadora'
p1858
I1
sS'Bonnie_Hunt'
p1859
I1
sS'viene'
p1860
I13
sS'evento'
p1861
I1
sS'secretas'
p1862
I1
sS'cabr\xc3\xb3n'
p1863
I4
sS'List'
p1864
I1
sS'soundtrack'
p1865
I3
sS'prisi\xc3\xb3n'
p1866
I2
sS'maligno'
p1867
I1
sS'podremos'
p1868
I1
sS'ep\xc3\xadlogo'
p1869
I1
sS'sistema'
p1870
I2
sS'plano'
p1871
I4
sS'comino'
p1872
I2
sS'sonido'
p1873
I1
sS'polic\xc3\xada'
p1874
I2
sS'General_Pancho_Villa'
p1875
I1
sS'Stevens'
p1876
I3
sS'l\xc3\xb3gica'
p1877
I2
sS'pol\xc3\xa9micas'
p1878
I1
sS'progresistas'
p1879
I1
sS'fundar'
p1880
I1
sS'conf\xc3\xada'
p1881
I1
sS'Shutter_Island'
p1882
I1
sS'camale\xc3\xb3n'
p1883
I1
sS'Dobbs'
p1884
I2
sS'repiten'
p1885
I2
sS'supervivencia'
p1886
I1
sS'patri\xc3\xb3ticos'
p1887
I1
sS'devuelve'
p1888
I1
sS'dese\xc3\xb3'
p1889
I1
sS'frases'
p1890
I2
sS'dando'
p1891
I5
sS'personalmente'
p1892
I2
sS'papel'
p1893
I11
sS'Don_Siegel'
p1894
I1
sS'extraordinario'
p1895
I1
sS'nominaci\xc3\xb3n'
p1896
I2
sS'25'
p1897
I3
sS'20'
p1898
I1
sS'pronta'
p1899
I1
sS'inicios'
p1900
I1
sS'pronto'
p1901
I3
sS'buscan'
p1902
I2
sS'28'
p1903
I1
sS'estudiante'
p1904
I1
sS'Protagonizan'
p1905
I1
sS'f\xc3\xa1cil'
p1906
I5
sS'pene'
p1907
I1
sS'obsesiva'
p1908
I1
sS'buscar'
p1909
I6
sS'tiempos'
p1910
I3
sS'veterinaria'
p1911
I1
sS'Oscar_A_Mejor_Pel\xc3\xadcula_Extranjera'
p1912
I1
sS'Edward_G._Robinson'
p1913
I1
sS'resaltar'
p1914
I1
sS'histriones'
p1915
I1
sS'tratar\xc3\xa1n'
p1916
I1
sS'Braff'
p1917
I1
sS'miedo'
p1918
I3
sS'odia'
p1919
I1
sS'abandona'
p1920
I1
sS'efectivo'
p1921
I3
sS'Tom_Cruise'
p1922
I3
sS'abandono'
p1923
I1
sS'aparici\xc3\xb3n'
p1924
I3
sS'ventanas'
p1925
I1
sS'recordable'
p1926
I1
sS'completar'
p1927
I2
sS'prestigiados'
p1928
I1
sS'cl\xc3\xa1sicos'
p1929
I1
sS'Zaachila'
p1930
I1
sS'Potter'
p1931
I2
sS'pertenecen'
p1932
I1
sS'excelentes'
p1933
I4
sS'traici\xc3\xb3n'
p1934
I1
sS'Going'
p1935
I1
sS'convertir\xc3\xa1'
p1936
I2
sS'visitas'
p1937
I1
sS'internado'
p1938
I3
sS'completan'
p1939
I1
sS'interpretar'
p1940
I1
sS'mental'
p1941
I2
sS'tormenta'
p1942
I1
sS'Josh_Lucas'
p1943
I1
sS'desarrollada'
p1944
I1
sS'recientemente'
p1945
I1
sS'Am\xc3\xa9rica'
p1946
I4
sS'alejar'
p1947
I1
sS'Hans_Landa'
p1948
I1
sS'catalogado'
p1949
I1
sS'volvemos'
p1950
I1
sS'Rodr\xc3\xadguez'
p1951
I2
sS'Clash'
p1952
I2
sS'Michelle_Rodriguez'
p1953
I2
sS'd\xc3\xb3nde'
p1954
I2
sS'perro'
p1955
I1
sS'Dios'
p1956
I5
sS'radiograf\xc3\xadas'
p1957
I1
sS'SF_Philip_K._Dick'
p1958
I1
sS'estragos'
p1959
I1
sS'Watchmen'
p1960
I1
sS'Forest_Whitaker'
p1961
I1
sS'Cre\xc3\xb3'
p1962
I1
sS'Una'
p1963
I11
sS'\xc3\xbaltimamente'
p1964
I1
sS'Nine'
p1965
I1
sS'influenciar'
p1966
I1
sS'EU'
p1967
I1
sS'trabajaron'
p1968
I2
sS'bonita'
p1969
I1
sS'El'
p1970
I137
sS'En'
p1971
I35
sS'trilog\xc3\xada'
p1972
I1
sS'convertir\xc3\xada'
p1973
I1
sS'perplejos'
p1974
I1
sS'aprobaci\xc3\xb3n'
p1975
I1
sS'MGM'
p1976
I1
sS'admirado'
p1977
I1
sS'filosof\xc3\xada'
p1978
I1
sS'Ex'
p1979
I1
sS'confusi\xc3\xb3n'
p1980
I1
sS'Anton_Yelchin'
p1981
I1
sS'impactante'
p1982
I1
sS'Bastante'
p1983
I1
sS'Anthony_Minghella'
p1984
I1
sS'panza'
p1985
I1
sS'Participante'
p1986
I1
sS'nace'
p1987
I1
sS'James_Belushi'
p1988
I1
sS'The_Curious_Case'
p1989
I1
sS'cada'
p1990
I13
sS'pop'
p1991
I1
sS'carnales'
p1992
I1
sS'atraso'
p1993
I1
sS'espiritualidad'
p1994
I1
sS'genios'
p1995
I1
sS'Gilbert'
p1996
I1
sS'pudor'
p1997
I1
sS'sargento'
p1998
I1
sS'Ralph_Fiennes'
p1999
I1
sS'Amanecer'
p2000
I1
sS'completamente'
p2001
I3
sS'retornar'
p2002
I1
sS'Sierra_Madre'
p2003
I3
sS'Bruno_Bichir'
p2004
I1
sS'revive'
p2005
I2
sS'adoradores'
p2006
I1
sS'golpeado'
p2007
I1
sS'contra'
p2008
I3
sS'notado'
p2009
I1
sS'Year_Old_Virgin'
p2010
I1
sS'caprichos'
p2011
I2
sS'Rumpelstiltskin'
p2012
I1
sS'divertido'
p2013
I1
sS'intermediario'
p2014
I1
sS'doctora'
p2015
I3
sS'para'
p2016
I203
sS'propia'
p2017
I1
sS'Shyamalan'
p2018
I5
sS'viajar'
p2019
I3
sS'agotara'
p2020
I1
sS'Proyecto'
p2021
I1
sS'XV'
p2022
I1
sS'plenos'
p2023
I1
sS'b'
p2024
I4
sS'maltrato'
p2025
I2
sS'cambios'
p2026
I1
sS'viviendo'
p2027
I2
sS'jubilados'
p2028
I1
sS'a\xc3\xb1o_1979'
p2029
I1
sS'interactivo'
p2030
I2
sS'declaro'
p2031
I1
sS'adem\xc3\xa1s_de'
p2032
I2
sS'Radha_Mitchell'
p2033
I1
sS'psiqui\xc3\xa1trico'
p2034
I1
sS'altibajos'
p2035
I1
sS'Ir'
p2036
I1
sS'aburrida'
p2037
I1
sS'utop\xc3\xada'
p2038
I1
sS'inconsistencias'
p2039
I1
sS'aburrido'
p2040
I1
sS'cumpli\xc3\xb3'
p2041
I1
sS'destruido'
p2042
I1
sS'pasan'
p2043
I2
sS'direcci\xc3\xb3n'
p2044
I7
sS'Virginia'
p2045
I1
sS'comunica'
p2046
I1
sS'sorpresiva'
p2047
I2
sS'atra\xc3\xaddos'
p2048
I1
sS'pasar'
p2049
I13
sS'justificado'
p2050
I2
sS'Orson_Welles'
p2051
I1
sS'Ant-Man'
p2052
I1
sS'organizado'
p2053
I1
sS'redes'
p2054
I1
sS'grados'
p2055
I2
sS'molida'
p2056
I1
sS'hechizo'
p2057
I1
sS'pandilleros'
p2058
I2
sS'Michael_Caine'
p2059
I3
sS'In'
p2060
I4
sS's\xc3\xb3lido'
p2061
I1
sS'previos'
p2062
I1
sS'plan'
p2063
I1
sS'independencia'
p2064
I1
sS'mediana'
p2065
I1
sS'objetos'
p2066
I1
sS'Egipto'
p2067
I1
sS'orejas'
p2068
I1
sS'M\xc3\xa9rito'
p2069
I1
sS'Google'
p2070
I1
sS'afroamericano'
p2071
I2
sS'nost\xc3\xa1lgico'
p2072
I1
sS'artes'
p2073
I1
sS'Pudor'
p2074
I1
sS'decencia'
p2075
I2
sS'compas'
p2076
I1
sS'cover'
p2077
I1
sS'forzar'
p2078
I1
sS'hind\xc3\xba'
p2079
I1
sS'ampliamente'
p2080
I2
sS'El_Rayo_McQueen'
p2081
I1
sS'Juntos'
p2082
I1
sS'nube'
p2083
I1
sS'fuertemente'
p2084
I1
sS'sector'
p2085
I1
sS'publicidad'
p2086
I5
sS'marinos'
p2087
I1
sS'acceso'
p2088
I1
sS'desveladas'
p2089
I1
sS'benevolencia'
p2090
I1
sS'carne'
p2091
I1
sS'Hay'
p2092
I4
sS'sientan'
p2093
I1
sS'ojo'
p2094
I1
sS'enterrado'
p2095
I1
sS'Siguiendo'
p2096
I2
sS'awuiten'
p2097
I1
sS'Freeman'
p2098
I1
sS'The_Last_King'
p2099
I1
sS'pinche'
p2100
I4
sS'ruin'
p2101
I2
sS'religi\xc3\xb3n'
p2102
I1
sS'piedra'
p2103
I3
sS'transmisi\xc3\xb3n'
p2104
I1
sS'ansiedad'
p2105
I1
sS'chingaderas'
p2106
I1
sS'factor'
p2107
I3
sS'sequito'
p2108
I1
sS'8'
p2109
I3
sS'Paycheck'
p2110
I1
sS'aminoraban'
p2111
I1
sS'Suzie_Templeton'
p2112
I1
sS'salud'
p2113
I1
sS'agradecidos'
p2114
I1
sS'vuelven'
p2115
I2
sS'vislumbraba'
p2116
I1
sS'Candados'
p2117
I1
sS'Vaya'
p2118
I2
sS'Actualizaci\xc3\xb3n'
p2119
I1
sS'Michael_Cera'
p2120
I2
sS'especie'
p2121
I8
sS'superiores'
p2122
I1
sS'Paul_Bettany'
p2123
I3
sS'especia'
p2124
I1
sS'rumores'
p2125
I1
sS'caballeros'
p2126
I1
sS'RV'
p2127
I1
sS'apuros'
p2128
I1
sS'c\xc3\xb3nyuge'
p2129
I1
sS'Frente_a'
p2130
I1
sS'trasciendan'
p2131
I1
sS'gal\xc3\xa1n'
p2132
I2
sS'ser'
p2133
I52
sS'vino'
p2134
I1
sS'due\xc3\xb1os'
p2135
I1
sS'conserje'
p2136
I1
sS'normandos'
p2137
I1
sS'ir\xc3\xa1n'
p2138
I1
sS'individual'
p2139
I1
sS'sea'
p2140
I9
sS'absurdos'
p2141
I1
sS'bendici\xc3\xb3n'
p2142
I3
sS'Aubrey_Plaza'
p2143
I2
sS'movie'
p2144
I1
sS'fabuloso'
p2145
I1
sS'trasfondo'
p2146
I1
sS'fans'
p2147
I2
sS'confianza'
p2148
I3
sS'chamuco'
p2149
I1
sS'horrores'
p2150
I1
sS'Ben_Kingsley'
p2151
I2
sS'estampado'
p2152
I1
sS'Viva'
p2153
I1
sS'complementan'
p2154
I2
sS'Sally_Kirkland'
p2155
I1
sS'prodigio'
p2156
I1
sS'premisa'
p2157
I1
sS'ficci\xc3\xb3n'
p2158
I9
sS'trago'
p2159
I1
sS'prescindir'
p2160
I1
sS'piedras'
p2161
I1
sS'pasados'
p2162
I4
sS'Ginevra'
p2163
I1
sS'last'
p2164
I1
sS'necesario'
p2165
I3
sS'apuro'
p2166
I1
sS'gustado'
p2167
I1
sS'soldado'
p2168
I3
sS'Zapatero'
p2169
I1
sS'les'
p2170
I40
sS'antih\xc3\xa9roes'
p2171
I1
sS'Todo'
p2172
I5
sS'ocurre'
p2173
I1
sS'Spice_Girl'
p2174
I1
sS'agente'
p2175
I3
sS'inepto'
p2176
I2
sS'instante'
p2177
I1
sS'imaginar'
p2178
I2
sS'mini'
p2179
I1
sS'simple'
p2180
I5
sS'misericordia'
p2181
I1
sS'lucha'
p2182
I2
sS'imaginamos'
p2183
I1
sS'andan'
p2184
I3
sS'premios'
p2185
I18
sS'tonta'
p2186
I1
sS'tonto'
p2187
I1
sS'corresponde'
p2188
I2
sS'cruzar'
p2189
I3
sS'Disney'
p2190
I2
sS'extrema'
p2191
I1
sS'bas\xc3\xb3'
p2192
I1
sS'exprimida'
p2193
I1
sS'echado'
p2194
I1
sS'Cars'
p2195
I1
sS'recomendar'
p2196
I1
sS'rid\xc3\xadculo'
p2197
I2
sS'\xc3\xa9xito'
p2198
I5
sS'conjunto'
p2199
I2
sS'runner'
p2200
I2
sS'cu\xc3\xa1l'
p2201
I5
sS'multiestelar'
p2202
I2
sS'demencia'
p2203
I1
sS'franc\xc3\xa9s'
p2204
I3
sS'devela'
p2205
I1
sS'Ian_McShane'
p2206
I1
sS'balazos'
p2207
I1
sS'interrogatorio'
p2208
I1
sS'horrenda'
p2209
I1
sS'sacado'
p2210
I2
sS'The_Sea_Inside'
p2211
I1
sS'gas'
p2212
I1
sS'Aparte'
p2213
I1
sS'demasiado'
p2214
I4
sS'da\xc3\xb1o'
p2215
I2
sS'Uni\xc3\xb3n'
p2216
I1
sS'seriedad'
p2217
I1
sS'ruptura'
p2218
I2
sS'guardar'
p2219
I1
sS'repetir'
p2220
I2
sS'apesta'
p2221
I2
sS'imperdonable'
p2222
I2
sS'ejecutivo'
p2223
I1
sS'duras'
p2224
I1
sS'proyectos'
p2225
I2
sS'formato'
p2226
I3
sS'registraron'
p2227
I1
sS'Capit\xc3\xa1n'
p2228
I1
sS'fue'
p2229
I33
sS'efecto'
p2230
I2
sS'pordiosero'
p2231
I1
sS'Estamos'
p2232
I3
sS'soporte'
p2233
I1
sS'a_trav\xc3\xa9s_de'
p2234
I12
sS'A_diferencia_de'
p2235
I3
sS'mote'
p2236
I1
sS'Joseph_Gordon-Levitt'
p2237
I1
sS'adoptivo'
p2238
I1
sS'Episode_I'
p2239
I1
sS'lococh\xc3\xb3n'
p2240
I1
sS'von'
p2241
I1
sS'Ojos_de_Julia'
p2242
I1
sS'moto'
p2243
I1
sS'gen\xc3\xa9tica'
p2244
I1
sS'busca'
p2245
I1
sS'Alexia'
p2246
I1
sS'voy'
p2247
I2
sS'voz'
p2248
I6
sS'convirtiendo'
p2249
I2
sS'experimentaron'
p2250
I1
sS'remedio'
p2251
I1
sS'femenista'
p2252
I1
sS'FIES'
p2253
I1
sS'excesiva'
p2254
I1
sS'jurado'
p2255
I2
sS'Sergei_Prokofiev'
p2256
I1
sS'migraci\xc3\xb3n'
p2257
I1
sS'basta'
p2258
I2
sS'Jason_Patric'
p2259
I1
sS'caiga'
p2260
I2
sS'Sthephen_Dorff'
p2261
I1
sS'caer'
p2262
I4
sS'hueco'
p2263
I1
sS'autobiograf\xc3\xada'
p2264
I2
sS'vejetes'
p2265
I1
sS'gringos'
p2266
I3
sS'recompensas'
p2267
I1
sS'movimientos'
p2268
I1
sS'Gosling'
p2269
I1
sS'entendemos'
p2270
I1
sS'vilmente'
p2271
I1
sS'antecesora'
p2272
I3
sS'caso'
p2273
I7
sS'entra'
p2274
I3
sS'reh\xc3\xa9n'
p2275
I1
sS'entre'
p2276
I26
sS'bipolar'
p2277
I1
sS'adentre'
p2278
I1
sS'olviden'
p2279
I1
sS'Jordana_Brewster'
p2280
I1
sS'Son'
p2281
I3
sS'guera'
p2282
I1
sS'Soy'
p2283
I1
sS'Jimmy_Hayward'
p2284
I1
sS'de_por_s\xc3\xad'
p2285
I1
sS'Predators'
p2286
I1
sS'incluso'
p2287
I15
sS'The_Aviator'
p2288
I1
sS'batido'
p2289
I1
sS'multitud'
p2290
I1
sS'salva'
p2291
I1
sS'porqu\xc3\xa9'
p2292
I1
sS'duraci\xc3\xb3n'
p2293
I4
sS'alternativo'
p2294
I1
sS'nuestra'
p2295
I7
sS'Bradley_Cooper'
p2296
I2
sS'conmovido'
p2297
I1
sS'Diciembre_de_1945'
p2298
I1
sS'atentado'
p2299
I1
sS'veraniegas'
p2300
I1
sS'crudas'
p2301
I1
sS'nuestro'
p2302
I4
sS'tibio'
p2303
I1
sS'respeto'
p2304
I5
sS'fregaderas'
p2305
I1
sS'castigo'
p2306
I3
sS'espectaculares'
p2307
I1
sS'D\xc3\xadaz'
p2308
I1
sS'trataba'
p2309
I1
sS'temporales'
p2310
I1
sS'conclusi\xc3\xb3n'
p2311
I4
sS'panfleto'
p2312
I1
sS'festivales'
p2313
I4
sS'acerca'
p2314
I1
sS'conmovedora'
p2315
I1
sS'puesta'
p2316
I1
sS'siglo_XIX'
p2317
I1
sS'tomar'
p2318
I4
sS'formar'
p2319
I1
sS'leemos'
p2320
I1
sS'Oh'
p2321
I3
sS'cinematogr\xc3\xa1ficas'
p2322
I1
sS'Gargamel'
p2323
I1
sS'consideraron'
p2324
I1
sS'edici\xc3\xb3n'
p2325
I1
sS'Buzz'
p2326
I2
sS'toman'
p2327
I2
sS'Feministas'
p2328
I1
sS'Owen_Wilson'
p2329
I1
sS'semi'
p2330
I1
sS'Sargento_Dylan_Chutsky_Beau_Knapp'
p2331
I1
sS'recibir\xc3\xa1'
p2332
I1
sS'guste'
p2333
I1
sS'coronilla'
p2334
I1
sS'novedoso'
p2335
I1
sS'segurita'
p2336
I1
sS'agregamos'
p2337
I1
sS'faceta'
p2338
I3
sS'chamaco'
p2339
I1
sS'faltar\xc3\xa1'
p2340
I1
sS'entretenido'
p2341
I2
sS'm\xc3\xado'
p2342
I1
sS'Vea'
p2343
I1
sS'asignado'
p2344
I1
sS'recibi\xc3\xb3'
p2345
I1
sS'disfruten'
p2346
I1
sS'Basada'
p2347
I4
sS'hubi\xc3\xa9ramos'
p2348
I1
sS'Andy'
p2349
I1
sS'comandados'
p2350
I1
sS'violaciones'
p2351
I1
sS'publico'
p2352
I3
sS'Dama'
p2353
I1
sS'Basado'
p2354
I1
sS'irresistible'
p2355
I1
sS'h\xc3\xadpster'
p2356
I1
sS'canadiense'
p2357
I3
sS'contactos'
p2358
I2
sS'pez'
p2359
I1
sS'mostrar'
p2360
I2
sS'Frank'
p2361
I3
sS'astr\xc3\xb3noma'
p2362
I1
sS'decisiones'
p2363
I1
sS'hac\xc3\xada'
p2364
I3
sS'Roxanne_Benjamin'
p2365
I1
sS'p\xc3\xa1jaros'
p2366
I1
sS'inicio'
p2367
I1
sS'causan'
p2368
I1
sS'errante'
p2369
I2
sS'llevar\xc3\xada_a_cabo'
p2370
I1
sS'atenci\xc3\xb3n'
p2371
I1
sS'\xc3\xbaltimas'
p2372
I2
sS'entrevistados'
p2373
I1
sS'revoluci\xc3\xb3n'
p2374
I1
sS'David'
p2375
I1
sS'santa'
p2376
I1
sS'deportado'
p2377
I1
sS'emocional'
p2378
I2
sS'from'
p2379
I2
sS'pareja'
p2380
I5
sS'apocal\xc3\xadptico'
p2381
I1
sS'juvenil'
p2382
I2
sS'veces'
p2383
I9
sS'amada'
p2384
I1
sS'justo'
p2385
I2
sS'parranda'
p2386
I1
sS'Alguien'
p2387
I4
sS'drama'
p2388
I8
sS'regular'
p2389
I1
sS'biol\xc3\xb3gico'
p2390
I1
sS'feo'
p2391
I1
sS'gusano'
p2392
I1
sS'anterior'
p2393
I4
sS'fuerzas'
p2394
I1
sS'teniendo'
p2395
I4
sS'inspirada'
p2396
I1
sS'integran'
p2397
I1
sS'integrar'
p2398
I1
sS'Speech'
p2399
I1
sS'terrorista'
p2400
I1
sS'Queridos'
p2401
I1
sS'poes\xc3\xada'
p2402
I1
sS'extraterrestre'
p2403
I2
sS'buscar\xc3\xa1n'
p2404
I1
sS'rodante'
p2405
I1
sS'\xc3\xa9lite'
p2406
I1
sS'imagen'
p2407
I4
sS'pierda'
p2408
I1
sS'pares'
p2409
I1
sS'justifique'
p2410
I1
sS'pierde'
p2411
I2
sS'extra\xc3\xb1as'
p2412
I2
sS'protagonizara'
p2413
I1
sS'petici\xc3\xb3n'
p2414
I2
sS'pared'
p2415
I1
sS'prensa'
p2416
I3
sS'Como'
p2417
I7
sS'lleguen'
p2418
I1
sS'exc\xc3\xa9ntrico'
p2419
I1
sS':'
p2420
I274
sS'desbocada'
p2421
I1
sS'secuela'
p2422
I8
sS'envejecen'
p2423
I1
sS'actoral'
p2424
I4
sS'realista'
p2425
I2
sS'pel\xc3\xadculas'
p2426
I17
sS'callado'
p2427
I1
sS'escuincles'
p2428
I4
sS'invito'
p2429
I1
sS'Karl_Urban'
p2430
I1
sS'Guy_Pearce'
p2431
I2
sS'quicio'
p2432
I1
sS'cinco'
p2433
I3
sS'serio'
p2434
I2
sS'esbozos'
p2435
I1
sS'considerable'
p2436
I1
sS'Chale'
p2437
I1
sS'palomitas'
p2438
I3
sS'Camar\xc3\xb3grafos'
p2439
I1
sS'Bueno'
p2440
I2
sS'Interesante'
p2441
I1
sS'brind\xc3\xb3'
p2442
I2
sS'Plaza_R\xc3\xado_de_Janeiro'
p2443
I1
sS'Samantha_Morton'
p2444
I2
sS'sobrevivientes'
p2445
I1
sS'gracias_a'
p2446
I5
sS'ni\xc3\xb1os'
p2447
I4
sS'escrita'
p2448
I1
sS'escrito'
p2449
I5
sS'gust\xc3\xb3'
p2450
I2
sS'Dejaron'
p2451
I1
sS'basaron'
p2452
I1
sS'tiranos'
p2453
I2
sS'tripulado'
p2454
I1
sS'Malkovich'
p2455
I1
sS'chan'
p2456
I3
sS'obligatoria'
p2457
I1
sS'cura'
p2458
I3
sS'mortales'
p2459
I1
sS'de_segunda_mano'
p2460
I1
sS'Mas'
p2461
I1
sS'Ramona'
p2462
I1
sS'preguntar'
p2463
I1
sS'premiado'
p2464
I1
sS'suizo'
p2465
I1
sS'cambio'
p2466
I1
sS'preguntan'
p2467
I1
sS'referido'
p2468
I1
sS'Involucrados'
p2469
I25
sS'veterinarios'
p2470
I1
sS'temor'
p2471
I4
sS'New_York'
p2472
I1
sS'respuesta'
p2473
I1
sS'papi'
p2474
I1
sS'secundario'
p2475
I2
sS'hace_cargo'
p2476
I1
sS'Netflix'
p2477
I2
sS'cosilla'
p2478
I1
sS'sencillita'
p2479
I1
sS'secundaria'
p2480
I1
sS'totalidad'
p2481
I2
sS'representan'
p2482
I1
sS'Legi\xc3\xb3n_de_\xc3\x81ngeles'
p2483
I1
sS'funcionario'
p2484
I1
sS'pese_a'
p2485
I2
sS'Plagado'
p2486
I1
sS'locutora'
p2487
I1
sS'especialista'
p2488
I4
sS'lucir'
p2489
I1
sS'mancuerna'
p2490
I1
sS'talentosa'
p2491
I3
sS'lana'
p2492
I3
sS'terremoto'
p2493
I1
sS'envejecer'
p2494
I1
sS'guardines'
p2495
I1
sS'mismas'
p2496
I2
sS'2003'
p2497
I2
sS'2001'
p2498
I3
sS'trepidante'
p2499
I1
sS'Eric_Bana'
p2500
I1
sS'ef\xc3\xadmero'
p2501
I1
sS'2005'
p2502
I4
sS'ef\xc3\xadmera'
p2503
I1
sS'2008'
p2504
I2
sS'2009'
p2505
I1
sS'desarrolladas'
p2506
I1
sS'sin_duda_alguna'
p2507
I1
sS'ataque'
p2508
I1
sS'concentraci\xc3\xb3n'
p2509
I1
sS'demuestra'
p2510
I3
sS'encuadres'
p2511
I1
sS'resulto'
p2512
I1
sS'hogar'
p2513
I1
sS'ajena'
p2514
I1
sS'transportador'
p2515
I1
sS'23_de_junio'
p2516
I1
sS'resulta'
p2517
I12
sS'Maestro_Sheridan'
p2518
I1
sS'Angelina'
p2519
I2
sS'graves'
p2520
I1
sS'cuarteto'
p2521
I2
sS'sinceros'
p2522
I3
sS'setentero'
p2523
I1
sS'Rob_Marshall'
p2524
I1
sS'talentoso'
p2525
I2
sS'verdaderas'
p2526
I4
sS'deseado'
p2527
I1
sS'incentivos'
p2528
I1
sS'sufri\xc3\xb3'
p2529
I1
sS'Capit\xc3\xa1n_Sparrow'
p2530
I1
sS'Esp\xc3\xadritu_Santo'
p2531
I1
sS'comi\xc3\xb3'
p2532
I1
sS'ense\xc3\xb1a'
p2533
I1
sS'desencadene'
p2534
I1
sS'ausente'
p2535
I1
sS'transformaron'
p2536
I1
sS'nieta'
p2537
I1
sS'enga\xc3\xb1ados'
p2538
I1
sS'caracter\xc3\xadsticas'
p2539
I1
sS'sobreviviendo'
p2540
I1
sS'ayudando'
p2541
I1
sS'Craig_Gillespie'
p2542
I1
sS'boletito'
p2543
I3
sS'opiniones'
p2544
I1
sS'Maggie_Gyllenhaal'
p2545
I1
sS'Hunnam'
p2546
I1
sS'Channing_Tatum'
p2547
I1
sS'entender'
p2548
I2
sS'Dominique_Pinon'
p2549
I1
sS'ocaso'
p2550
I2
sS'amantes'
p2551
I8
sS'vistas'
p2552
I1
sS'cartelera'
p2553
I5
sS'est\xc3\xa9'
p2554
I2
sS'Howard'
p2555
I3
sS'interactuar'
p2556
I2
sS'est\xc3\xa1'
p2557
I16
sS'noticias'
p2558
I1
sS'video'
p2559
I3
sS'aparte_de'
p2560
I1
sS'originales'
p2561
I2
sS'apegados'
p2562
I1
sS'belleza'
p2563
I1
sS'inoxidable'
p2564
I1
sS'3D'
p2565
I1
sS'salvando'
p2566
I2
sS'envidiable'
p2567
I2
sS'directiva'
p2568
I2
sS'contratista'
p2569
I1
sS'disponible'
p2570
I1
sS'directivo'
p2571
I1
sS'dignos'
p2572
I1
sS'armadas'
p2573
I1
sS'Villisca'
p2574
I1
sS'Mark_Ruffalo'
p2575
I1
sS'insufrible'
p2576
I3
sS'cronol\xc3\xb3gico'
p2577
I1
sS'Quentin_Tarantino'
p2578
I1
sS'Globo_de_Oro'
p2579
I1
sS'caza'
p2580
I2
sS'herida'
p2581
I1
sS'acci\xc3\xb3n'
p2582
I18
sS'herido'
p2583
I2
sS'c\xc3\xb3micos'
p2584
I1
sS'padrotones'
p2585
I1
sS'sino'
p2586
I15
sS'octava'
p2587
I1
sS'poderes'
p2588
I1
sS'IMAX'
p2589
I1
sS'prefiere'
p2590
I1
sS'others'
p2591
I1
sS'ley'
p2592
I2
sS'arranco'
p2593
I1
sS'estructural'
p2594
I1
sS'combinado'
p2595
I1
sS'portar'
p2596
I1
sS'representaciones'
p2597
I1
sS'apagando'
p2598
I1
sS'30'
p2599
I4
sS'Changeling'
p2600
I1
sS'Jennifer'
p2601
I1
sS'oficial'
p2602
I9
sS'estandarte'
p2603
I1
sS'profundo'
p2604
I1
sS'Jean-Pierre_Jeunet'
p2605
I1
sS'Zachary_Braff'
p2606
I1
sS'San_Sebasti\xc3\xa1n'
p2607
I1
sS'a_cada_rato'
p2608
I1
sS'honor'
p2609
I1
sS'Ana_de_Armas'
p2610
I1
sS'corporaci\xc3\xb3n'
p2611
I2
sS'arras\xc3\xb3'
p2612
I1
sS'individuos'
p2613
I2
sS'causar'
p2614
I5
sS'Ver'
p2615
I1
sS'codiciado'
p2616
I1
sS'bodrio'
p2617
I4
sS'Mark_Millar'
p2618
I1
sS'refugio'
p2619
I1
sS'Stphen_Dorff'
p2620
I1
sS'ser\xc3\xa1'
p2621
I20
sS'fracaso'
p2622
I1
sS'Super_Christopher_Nolan'
p2623
I1
sS'lenguaje'
p2624
I2
sS'encontr\xc3\xb3'
p2625
I3
sS'sobrina'
p2626
I2
sS'Jerome_Salle'
p2627
I1
sS'Solo'
p2628
I4
sS'Walter_Huston'
p2629
I4
sS'Hechizo_de_Tiempo'
p2630
I1
sS'clich\xc3\xa9s'
p2631
I2
sS'precisamente'
p2632
I1
sS'cuelga'
p2633
I1
sS'invasi\xc3\xb3n'
p2634
I2
sS'Unforgiven'
p2635
I1
sS'nexo'
p2636
I1
sS'misiones'
p2637
I1
sS'cualquiera'
p2638
I3
sS'baba'
p2639
I2
sS'patrocinada'
p2640
I1
sS'on'
p2641
I1
sS'recordatorio'
p2642
I1
sS'carga'
p2643
I1
sS'My_Left_Foot'
p2644
I1
sS'amenazas'
p2645
I1
sS'Jon_Bernthal'
p2646
I1
sS'consider\xc3\xb3'
p2647
I1
sS'Rogues'
p2648
I1
sS'abusado'
p2649
I1
sS'Tocaron'
p2650
I1
sS'hip\xc3\xb3dromo'
p2651
I1
sS'Donnersmarck'
p2652
I1
sS'Rainn_Wilson'
p2653
I1
sS'Habiendo'
p2654
I1
sS'debido_a'
p2655
I3
sS'amor'
p2656
I8
sS'permaneci\xc3\xb3'
p2657
I1
sS'darse_cuenta'
p2658
I1
sS'autoestima'
p2659
I1
sS'Algo'
p2660
I2
sS'Indiana_Jones'
p2661
I1
sS'sabe'
p2662
I5
sS'Cata'
p2663
I1
sS'urgidos'
p2664
I1
sS'extranjero'
p2665
I1
sS'dimensi\xc3\xb3n'
p2666
I1
sS'por_si_acaso'
p2667
I1
sS'loco'
p2668
I2
sS'desventuras'
p2669
I1
sS'proceso'
p2670
I2
sS'sociedad'
p2671
I3
sS'Jessica_Biel'
p2672
I1
sS'feminismo'
p2673
I1
sS'tan'
p2674
I23
sS'alejada'
p2675
I1
sS'Yo'
p2676
I4
sS'Ya'
p2677
I5
sS'escritor'
p2678
I5
sS'subg\xc3\xa9nero'
p2679
I1
sS'tr\xc3\xado'
p2680
I1
sS'comodidad'
p2681
I1
sS'Shoshanna'
p2682
I2
sS'elecci\xc3\xb3n'
p2683
I1
sS'grabaron'
p2684
I1
sS'Memento'
p2685
I1
sS'distribuci\xc3\xb3n'
p2686
I3
sS'especial'
p2687
I6
sS'Nueva_Dehli'
p2688
I1
sS'reconocida'
p2689
I1
sS'falta'
p2690
I5
sS'Sadam'
p2691
I1
sS'Max_Von_Sydow'
p2692
I1
sS'pr\xc3\xb3ximos'
p2693
I1
sS'wallpaper'
p2694
I1
sS'fuertes'
p2695
I2
sS'amarilla'
p2696
I1
sS'factores'
p2697
I1
sS'machos'
p2698
I2
sS'aliados'
p2699
I2
sS'recreados'
p2700
I1
sS'relajada'
p2701
I1
sS'estelarizar'
p2702
I1
sS'por_ende'
p2703
I1
sS'One'
p2704
I1
sS'estelarizan'
p2705
I1
sS'Vhadir_Derb\xc3\xa9z'
p2706
I1
sS'destacables'
p2707
I2
sS'borda'
p2708
I1
sS'borde'
p2709
I1
sS'primero'
p2710
I6
sS'Agonizaron'
p2711
I1
sS'directo'
p2712
I2
sS'desde\xc3\xb1able'
p2713
I1
sS'gigante'
p2714
I2
sS'meten'
p2715
I1
sS'John_Huston'
p2716
I2
sS'entrados'
p2717
I1
sS'mejores'
p2718
I15
sS'Haver'
p2719
I1
sS'le'
p2720
I110
sS'aceptan'
p2721
I1
sS'lo'
p2722
I147
sS'll'
p2723
I1
sS'labor'
p2724
I1
sS'Director'
p2725
I18
sS'fortaleza'
p2726
I3
sS'2018'
p2727
I1
sS'puerta'
p2728
I1
sS'2015'
p2729
I2
sS'terminaremos'
p2730
I1
sS'2016'
p2731
I2
sS'2011'
p2732
I2
sS'2010'
p2733
I3
sS'2013'
p2734
I1
sS'2012'
p2735
I1
sS'volveremos'
p2736
I1
sS'Capit\xc3\xa1n_Barba_Negra'
p2737
I1
sS'odiada'
p2738
I1
sS'animal'
p2739
I1
sS'later'
p2740
I1
sS'pronosticar'
p2741
I1
sS'nada'
p2742
I31
sS'fiesta'
p2743
I2
sS'Reza_Memari'
p2744
I1
sS'Nickelodeon'
p2745
I1
sS's\xc3\xbatil'
p2746
I1
sS'asociaci\xc3\xb3n'
p2747
I2
sS'dar'
p2748
I21
sS'\xc3\xb3rganos'
p2749
I1
sS'propuso'
p2750
I1
sS'importante'
p2751
I5
sS'recuerda'
p2752
I1
sS'Sam'
p2753
I1
sS'Sal'
p2754
I1
sS'imaginaci\xc3\xb3n'
p2755
I2
sS'recuerdo'
p2756
I1
sS'existir'
p2757
I1
sS'Conan'
p2758
I3
sS'cl\xc3\xa1sica'
p2759
I2
sS'parezca'
p2760
I3
sS'Rourke'
p2761
I1
sS'Titans'
p2762
I2
sS'parec\xc3\xada'
p2763
I1
sS'descubrimiento'
p2764
I2
sS'afectados'
p2765
I1
sS'bueno'
p2766
I13
sS'tendremos'
p2767
I1
sS'Liev_Schreiber'
p2768
I2
sS'meta'
p2769
I1
sS'mete'
p2770
I1
sS'informaci\xc3\xb3n'
p2771
I3
sS'dichas'
p2772
I2
sS'disco'
p2773
I1
sS'sexual'
p2774
I3
sS'religiosas'
p2775
I1
sS'ejercicio'
p2776
I3
sS'har\xc3\xa1n'
p2777
I2
sS'Fett_Dice'
p2778
I3
sS'as\xc3\xad'
p2779
I27
sS'China'
p2780
I1
sS'inquietantes'
p2781
I1
sS'Rumpf'
p2782
I1
sS'conquista'
p2783
I1
sS'red'
p2784
I1
sS'sue\xc3\xb1os'
p2785
I1
sS'Statesman'
p2786
I1
sS'ordenador'
p2787
I1
sS'despedir'
p2788
I1
sS'r\xc3\xa1pido'
p2789
I2
sS'que'
p2790
I929
sS'mainstreams'
p2791
I1
sS'vieja'
p2792
I2
sS'Co-Director'
p2793
I1
sS'idioma'
p2794
I1
sS'Howard_The_Duck'
p2795
I1
sS'cuidado'
p2796
I1
sS'meter\xc3\xa1n'
p2797
I1
sS'emana'
p2798
I1
sS'agrado'
p2799
I2
sS'ra\xc3\xadces'
p2800
I1
sS'agrada'
p2801
I1
sS'recomendaci\xc3\xb3n'
p2802
I1
sS'Gunn'
p2803
I2
sS'saca'
p2804
I2
sS'poquito'
p2805
I1
sS'realizador'
p2806
I7
sS'inolvidables'
p2807
I1
sS'pantallas'
p2808
I1
sS'Jacques_Cousteau'
p2809
I1
sS'magn\xc3\xadficamente'
p2810
I2
sS'procedencia'
p2811
I1
sS'est\xc3\xa1ndar'
p2812
I1
sS'potencial'
p2813
I2
sS'enlist\xc3\xb3'
p2814
I1
sS'puppet'
p2815
I1
sS'alcoh\xc3\xb3lica'
p2816
I1
sS'espera'
p2817
I1
sS'cuadro'
p2818
I1
sS'Irak'
p2819
I2
sS'cintas'
p2820
I7
sS'narradoras'
p2821
I1
sS'Noomi_Rapace'
p2822
I1
sS'pocas'
p2823
I5
sS'Scott_Charles_Stewart'
p2824
I1
sS'adopta'
p2825
I1
sS'mantenido'
p2826
I1
sS'destaca'
p2827
I1
sS'creyendo'
p2828
I1
sS'granizo'
p2829
I1
sS'Ali_Baba'
p2830
I1
sS'negra'
p2831
I1
sS'The_Bourne_Supremacy'
p2832
I1
sS'Helsinki'
p2833
I1
sS'lugares'
p2834
I1
sS'despertar'
p2835
I2
sS'negro'
p2836
I2
sS'convence'
p2837
I1
sS'Spaiths'
p2838
I1
sS'Cannes'
p2839
I6
sS'sorpresa'
p2840
I3
sS'debemos'
p2841
I1
sS'hembras'
p2842
I1
sS'Maya_Goded'
p2843
I1
sS'hampa'
p2844
I1
sS'Taylor_Lautner'
p2845
I1
sS'Universal'
p2846
I1
sS'protagoniza'
p2847
I1
sS'llevan'
p2848
I3
sS'Maria_Rojo'
p2849
I1
sS'Garden_State'
p2850
I1
sS'llevar'
p2851
I12
sS'interpretada'
p2852
I2
sS'ti\xc3\xb1en'
p2853
I1
sS'Eastwood'
p2854
I4
sS'magistral'
p2855
I1
sS'falsa'
p2856
I1
sS'directoras'
p2857
I2
sS'Derrotada'
p2858
I1
sS'pasando'
p2859
I1
sS'L\xc3\xa1grimas'
p2860
I1
sS'observar'
p2861
I1
sS'ciudadano'
p2862
I1
sS'proyecci\xc3\xb3n'
p2863
I4
sS'conferencia'
p2864
I1
sS'Arroooooz'
p2865
I1
sS'deb\xc3\xadan'
p2866
I1
sS'traga-palomitas'
p2867
I1
sS'blockbuster'
p2868
I2
sS'propuesta'
p2869
I2
sS'personaje'
p2870
I16
sS'Miguel_Sapochnik'
p2871
I1
sS'pr\xc3\xb3nostico'
p2872
I1
sS'primera'
p2873
I19
sS'contada'
p2874
I2
sS'Pertenece'
p2875
I1
sS'cuatro'
p2876
I4
sS'sacrificio'
p2877
I1
sS'Cruise'
p2878
I2
sS'latina'
p2879
I1
sS'rom\xc3\xa1ntica'
p2880
I1
sS'rom\xc3\xa1ntico'
p2881
I1
sS'mis'
p2882
I7
sS'catapulto'
p2883
I1
sS'expuestas'
p2884
I1
sS'fingir'
p2885
I1
sS'hist\xc3\xb3rico'
p2886
I1
sS'estridente'
p2887
I1
sS'McDonalds'
p2888
I1
sS'mitos'
p2889
I1
sS'sobrenatural'
p2890
I1
sS'familiares'
p2891
I2
sS'Steven_Spielberg'
p2892
I1
sS'escuchado'
p2893
I2
sS'Tras'
p2894
I2
sS'solos'
p2895
I1
sS'amoroso'
p2896
I1
sS'altos'
p2897
I1
sS'avance'
p2898
I4
sS'copiare'
p2899
I1
sS'repite'
p2900
I2
sS'Halle_Berry'
p2901
I1
sS'Renato_L\xc3\xb3pez'
p2902
I1
sS'seguro'
p2903
I8
sS'Treehouse_Pictures'
p2904
I1
sS'repito'
p2905
I1
sS'30_de_junio'
p2906
I1
sS'Erik_Estrada'
p2907
I1
sS'pelot\xc3\xb3n'
p2908
I1
sS'fiasco'
p2909
I2
sS'trampa'
p2910
I2
sS'insin\xc3\xbaa'
p2911
I1
sS'necio'
p2912
I1
sS'insultos'
p2913
I1
sS'europeos'
p2914
I3
sS'Cyrus'
p2915
I4
sS'Anna_Pr\xc3\xb3chiak'
p2916
I1
sS'Imperio_Romano'
p2917
I1
sS'cortometraje'
p2918
I3
sS'bedroom'
p2919
I1
sS'guerra'
p2920
I10
sS'veremos'
p2921
I3
sS'en_lugar_de'
p2922
I2
sS'podr\xc3\xa1'
p2923
I2
sS'almacenados'
p2924
I1
sS'est\xc3\xbapido'
p2925
I2
sS'intriga'
p2926
I2
sS'adolescencia'
p2927
I1
sS'Jovovich'
p2928
I1
sS'hachazos'
p2929
I2
sS'fecha'
p2930
I2
sS'Jorge_Hern\xc3\xa1ndez_Leija'
p2931
I1
sS'descansa'
p2932
I1
sS'terminar'
p2933
I3
sS'terminan'
p2934
I1
sS'zapatos'
p2935
I2
sS'Mom'
p2936
I1
sS'Derbezombies'
p2937
I1
sS'David_Shaber'
p2938
I1
sS'Marvel'
p2939
I1
sS'canibalismo'
p2940
I1
sS'lobo'
p2941
I2
sS'enviados'
p2942
I2
sS'familias'
p2943
I3
sS'familiar'
p2944
I4
sS'sorprender'
p2945
I2
sS'Pronostico'
p2946
I1
sS'iconos'
p2947
I1
sS'autor'
p2948
I3
sS'autos'
p2949
I2
sS'cazando'
p2950
I1
sS'\xc3\xb3rdenes'
p2951
I1
sS'Once'
p2952
I1
sS'extremista'
p2953
I1
sS'concibe'
p2954
I1
sS'veinte_mil'
p2955
I1
sS'tendr\xc3\xa1'
p2956
I4
sS'The_City'
p2957
I1
sS'encontrar\xc3\xa1'
p2958
I1
sS'confederado'
p2959
I1
sS'monos'
p2960
I1
sS'ganar'
p2961
I4
sS'ganas'
p2962
I2
sS'360'
p2963
I2
sS'viajes'
p2964
I3
sS'segundos'
p2965
I1
sS'clavado'
p2966
I1
sS'Jeunet'
p2967
I5
sS'dejado'
p2968
I2
sS'traves\xc3\xada'
p2969
I1
sS'sombr\xc3\xado'
p2970
I1
sS'valgan'
p2971
I1
sS'Woody_Harrelson'
p2972
I1
sS'dom\xc3\xa9sticos'
p2973
I1
sS'indudable'
p2974
I1
sS'perdida'
p2975
I2
sS'sombr\xc3\xada'
p2976
I1
sS'copi\xc3\xb3n'
p2977
I1
sS'existe'
p2978
I2
sS'instituci\xc3\xb3n'
p2979
I1
sS'Atrapado'
p2980
I1
sS'confort'
p2981
I1
sS'pa\xc3\xadses'
p2982
I1
sS'dud\xc3\xb3'
p2983
I1
sS'aceptaci\xc3\xb3n'
p2984
I2
sS'mot\xc3\xadn'
p2985
I1
sS'espanto'
p2986
I1
sS'cristianos'
p2987
I1
sS'poseedor'
p2988
I1
sS'suelta'
p2989
I1
sS'desarroll\xc3\xb3'
p2990
I1
sS'tuvieron'
p2991
I3
sS'PC'
p2992
I1
sS'destino'
p2993
I5
sS'creados'
p2994
I1
sS'creador'
p2995
I1
sS'confirmar'
p2996
I1
sS'pre\xc3\xa1mbulo'
p2997
I1
sS'murieron'
p2998
I1
sS'tripas'
p2999
I1
sS'por_cuenta_de'
p3000
I1
sS'reproducen'
p3001
I1
sS'finales'
p3002
I2
sS'disfrutar\xc3\xa1n'
p3003
I1
sS'interrupciones'
p3004
I1
sS'viril'
p3005
I1
sS'masacrada'
p3006
I1
sS'ausenta'
p3007
I1
sS'rapero'
p3008
I1
sS'asegur\xc3\xb3'
p3009
I1
sS'valdr\xc3\xada'
p3010
I1
sS'abusos'
p3011
I1
sS'inconsistente'
p3012
I1
sS'exactitud'
p3013
I1
sS'hallazgo'
p3014
I1
sS'Javier_Aguirre'
p3015
I1
sS'cruzo'
p3016
I1
sS'c\xc3\xadrculos'
p3017
I1
sS'la'
p3018
I877
sS'The_Cove'
p3019
I1
sS'r\xc3\xa9gimen'
p3020
I1
sS'sorprende'
p3021
I3
sS'conseguir'
p3022
I2
sS'etc'
p3023
I2
sS'usted'
p3024
I10
sS'dir\xc3\xa1'
p3025
I1
sS'lazo'
p3026
I1
sS'Alessandra'
p3027
I1
sS'redundancia'
p3028
I1
sS'co'
p3029
I1
sS's\xc3\xa9ptima'
p3030
I1
sS's\xc3\xa9ptimo'
p3031
I4
sS'recurrente'
p3032
I1
sS'veh\xc3\xadculos'
p3033
I1
sS'Garra'
p3034
I1
sS'modelos'
p3035
I2
sS'De_la_mano_de'
p3036
I1
sS'comuni\xc3\xb3n'
p3037
I1
sS'casta\xc3\xb1os'
p3038
I1
sS'mafia'
p3039
I1
sS'reputaci\xc3\xb3n'
p3040
I2
sS'b\xc3\xa1rbaros'
p3041
I2
sS'abiertamente'
p3042
I1
sS'vuelvan'
p3043
I1
sS'actualiza'
p3044
I1
sS'veneraci\xc3\xb3n'
p3045
I1
sS'Sexo'
p3046
I1
sS'fuerza'
p3047
I2
sS'Cochise'
p3048
I1
sS'sat\xc3\xadrico'
p3049
I1
sS'pisado'
p3050
I1
sS'agregado'
p3051
I1
sS'equipo'
p3052
I2
sS'ac\xc3\xa9rrimos'
p3053
I1
sS'homosexual'
p3054
I1
sS'opciones'
p3055
I1
sS'planos'
p3056
I1
sS'ocean\xc3\xb3grafo'
p3057
I1
sS'salvaje'
p3058
I3
sS'Edgar_Wright'
p3059
I1
sS'demonios'
p3060
I1
sS'Le\xc3\xb3n_de_Oro'
p3061
I1
sS'Vincent_D'
p3062
I1
sS'pudimos'
p3063
I1
sS'general'
p3064
I4
sS'2017'
p3065
I1
sS'semestre'
p3066
I1
sS'alucinaci\xc3\xb3n'
p3067
I1
sS'multi'
p3068
I1
sS'aceptar'
p3069
I1
sS'aboli\xc3\xb3'
p3070
I1
sS'acostones'
p3071
I1
sS'Prefiero'
p3072
I1
sS'Vermin'
p3073
I1
sS'Ese'
p3074
I1
sS'detener'
p3075
I2
sS'entretenimiento'
p3076
I5
sS'ex\xc3\xb3ticos'
p3077
I1
sS'autom\xc3\xb3viles'
p3078
I1
sS'Terrence_Howard'
p3079
I1
sS'situaciones'
p3080
I1
sS'Huele'
p3081
I1
sS'querr\xc3\xa1n'
p3082
I1
sS'va'
p3083
I21
sS'responsabilidad'
p3084
I1
sS'locura'
p3085
I1
sS'confesar'
p3086
I1
sS'cortos'
p3087
I2
sS'desgaste'
p3088
I1
sS'Surviving_Christmas'
p3089
I1
sS'vs'
p3090
I2
sS'debes'
p3091
I1
sS'ma\xc3\xadz'
p3092
I2
sS'Jurassic_Park'
p3093
I1
sS')'
p3094
I303
sS'prestado'
p3095
I1
sS'en_medio_de'
p3096
I2
sS'Billy_Crudup'
p3097
I1
sS'romance'
p3098
I1
sS'candados'
p3099
I1
sS'intento'
p3100
I3
sS'Matthew_Vaughn'
p3101
I2
sS'Donnie_Darko'
p3102
I2
sS'vamp\xc3\xadrica'
p3103
I1
sS'por_lo_tanto'
p3104
I1
sS'dan'
p3105
I3
sS'obtendr\xc3\xa1'
p3106
I1
sS'peleador'
p3107
I1
sS'Pittacus_Lore'
p3108
I1
sS'tiempo'
p3109
I20
sS'secuencia'
p3110
I4
sS'campesino'
p3111
I1
sS'mostrado'
p3112
I1
sS'maravillosa'
p3113
I3
sS'competir'
p3114
I1
sS'maravilloso'
p3115
I1
sS'involucran'
p3116
I1
sS'mostro'
p3117
I1
sS'sigue'
p3118
I2
sS'infinito'
p3119
I1
sS'padres'
p3120
I1
sS'personificando'
p3121
I1
sS'puente'
p3122
I1
sS'asocia'
p3123
I1
sS'Julio'
p3124
I1
sS'resultado'
p3125
I5
sS'siguiente'
p3126
I5
sS'centrado'
p3127
I3
sS'centrada'
p3128
I1
sS've\xc3\xada'
p3129
I1
sS'War_Machine'
p3130
I1
sS'encontraba'
p3131
I1
sS'advertencia'
p3132
I1
sS'harta'
p3133
I1
sS'Robert_Kenner'
p3134
I1
sS'dispuesta'
p3135
I1
sS'inminente'
p3136
I2
sS'anti-h\xc3\xa9roe'
p3137
I1
sS'Miguel_Rodarte'
p3138
I2
sS'DiCaprio'
p3139
I1
sS'Little_Children'
p3140
I1
sS'generalizada'
p3141
I1
sS'momento'
p3142
I13
sS'dentro_de'
p3143
I4
sS'complicada'
p3144
I2
sS'complicado'
p3145
I1
sS'escritores'
p3146
I3
sS'Suena'
p3147
I2
sS'estupidez'
p3148
I2
sS'arremeti\xc3\xb3'
p3149
I1
sS'quiere'
p3150
I5
sS'mantienen'
p3151
I1
sS'quiera'
p3152
I2
sS'nacional'
p3153
I8
sS'combina'
p3154
I1
sS'Michael_Buble'
p3155
I1
sS'Inception'
p3156
I2
sS'escuela'
p3157
I2
sS'constantemente'
p3158
I1
sS'Despu\xc3\xa9s_de'
p3159
I9
sS'piel'
p3160
I2
sS'adjetivo'
p3161
I2
sS'tantas'
p3162
I2
sS'acierto'
p3163
I2
sS'esas'
p3164
I4
sS'm\xc3\xa1gica'
p3165
I1
sS'resolver'
p3166
I1
sS'ruso'
p3167
I2
sS'chingados'
p3168
I1
sS'Tarantino'
p3169
I2
sS'Pirates'
p3170
I1
sS'talentosos'
p3171
I1
sS'exitoso'
p3172
I1
sS'estomago'
p3173
I1
sS'hu\xc3\xa9rfano'
p3174
I1
sS'desarrolla'
p3175
I1
sS'cosas'
p3176
I9
sS'complementando'
p3177
I1
sS'chica'
p3178
I11
sS'contrato'
p3179
I1
sS'Stacy_Title'
p3180
I1
sS'Knight_&_Day'
p3181
I1
sS'chico'
p3182
I2
sS'presentar'
p3183
I3
sS'traductores'
p3184
I1
sS'otras'
p3185
I5
sS'Se\xc3\xb1orita_Mimieux'
p3186
I1
sS'deliciosa'
p3187
I1
sS'necesidad'
p3188
I1
sS'presentan'
p3189
I1
sS'reglas'
p3190
I1
sS'orfandad'
p3191
I1
sS'hipsters'
p3192
I1
sS'pues'
p3193
I25
sS'pasadito'
p3194
I1
sS'ese'
p3195
I10
sS'Centro_Universitario_de_Estudios_Cinematogr\xc3\xa1ficos'
p3196
I1
sS'aventuras'
p3197
I2
sS'aventurar'
p3198
I1
sS'esa'
p3199
I7
sS'hermosura'
p3200
I1
sS'eso'
p3201
I15
sS'precedido'
p3202
I1
sS'desgracia'
p3203
I3
sS'narca'
p3204
I1
sS'escritora'
p3205
I2
sS'convirti\xc3\xb3'
p3206
I4
sS'mayores'
p3207
I3
sS'tierras'
p3208
I4
sS'consumir'
p3209
I2
sS'oc\xc3\xa9anos'
p3210
I1
sS'engrudo'
p3211
I1
sS'comulga'
p3212
I1
sS'valiente'
p3213
I2
sS'llama'
p3214
I1
sS'\xc3\xa9poca'
p3215
I9
sS'Qu\xc3\xa9'
p3216
I5
sS'Micro-Machines'
p3217
I1
sS'v\xc3\xadsceras'
p3218
I1
sS'm\xc3\xad'
p3219
I1
sS'cl\xc3\xa1sico'
p3220
I4
sS'actual'
p3221
I4
sS'Dreamworks'
p3222
I1
sS'EXIGIR_CINE'
p3223
I1
sS'Rick_Deckard'
p3224
I1
sS'espec\xc3\xadficamente'
p3225
I1
sS'cadena'
p3226
I2
sS'repetidas'
p3227
I1
sS'literarias'
p3228
I1
sS'mundialista'
p3229
I1
sS'toma'
p3230
I5
sS'actuar'
p3231
I5
sS'jud\xc3\xada'
p3232
I1
sS'tome'
p3233
I1
sS'mam\xc3\xa1'
p3234
I2
sS'agradable'
p3235
I4
sS'Wallace'
p3236
I1
sS'debutante'
p3237
I1
sS'obtener'
p3238
I4
sS'Sr._Miyagi'
p3239
I1
sS'donde'
p3240
I25
sS'IMDB'
p3241
I2
sS'Festival_de_Cannes'
p3242
I1
sS'mera'
p3243
I1
sS'Skyfall'
p3244
I1
sS'banco'
p3245
I1
sS'grupo'
p3246
I10
sS'entra\xc3\xb1able'
p3247
I2
sS'1986'
p3248
I1
sS'1987'
p3249
I1
sS'poniendo'
p3250
I1
sS'1985'
p3251
I2
sS'escabullir'
p3252
I1
sS'The_Pink_Panther'
p3253
I1
sS'sentimentalismo'
p3254
I1
sS'sandez'
p3255
I1
sS'comida'
p3256
I1
sS'Shrek_Tercero'
p3257
I1
sS'compa\xc3\xb1ero'
p3258
I1
sS'muerto'
p3259
I4
sS'f\xc3\xadsico'
p3260
I1
sS'f\xc3\xadsica'
p3261
I1
sS'compa\xc3\xb1era'
p3262
I1
sS'atada'
p3263
I1
sS'buena'
p3264
I15
sS'directora'
p3265
I6
sS'posici\xc3\xb3n'
p3266
I1
sS'h\xc3\xbangaro'
p3267
I1
sS'mediocres'
p3268
I1
sS'chavitos'
p3269
I1
sS'grato'
p3270
I1
sS'Den'
p3271
I1
sS'Verbinski'
p3272
I3
sS'grata'
p3273
I2
sS'burdo'
p3274
I2
sS'embargo'
p3275
I12
sS'\xc2\xa1'
p3276
I62
sS'Idiotas'
p3277
I1
sS'placer'
p3278
I1
sS'\xc2\xad'
p3279
I1
sS'pesimista'
p3280
I1
sS'\xc2\xb0'
p3281
I1
sS'dram\xc3\xa1ticos'
p3282
I1
sS'pesadilla'
p3283
I1
sS'cazadora'
p3284
I1
sS'reconocido'
p3285
I1
sS'CIA'
p3286
I1
sS'temidos'
p3287
I1
sS'revolcando'
p3288
I1
sS'especiales'
p3289
I3
sS'pl\xc3\xa1tica'
p3290
I1
sS'pie'
p3291
I2
sS'argentinos'
p3292
I1
sS'seguramente'
p3293
I10
sS'sustituye'
p3294
I1
sS'conocidas'
p3295
I1
sS'secuencias'
p3296
I1
sS'gastada'
p3297
I1
sS'42'
p3298
I1
sS'40'
p3299
I1
sS'87'
p3300
I2
sS'surreal'
p3301
I1
sS'Jap\xc3\xb3n'
p3302
I1
sS'pueden'
p3303
I11
sS'investigar'
p3304
I1
sS'dejar_de_lado'
p3305
I1
sS'exhibidores'
p3306
I1
sS'destruidas'
p3307
I1
sS'adaptado'
p3308
I1
sS'usado'
p3309
I2
sS'Lost'
p3310
I2
sS'grito'
p3311
I2
sS'gorri\xc3\xb3n'
p3312
I1
sS'anteriores'
p3313
I4
sS'conocer\xc3\xa1n'
p3314
I1
sS'rey'
p3315
I1
sS'\xe2\x80\xa6'
p3316
I26
sS'millones'
p3317
I2
sS'hundimiento'
p3318
I1
sS'Page'
p3319
I1
sS'despistado'
p3320
I1
sS'canica'
p3321
I1
sS'\xe2\x80\x93'
p3322
I12
sS'largan'
p3323
I1
sS'Tom_Holland'
p3324
I1
sS'recibido'
p3325
I4
sS'\xe2\x80\x99'
p3326
I26
sS'recibida'
p3327
I1
sS'pilas'
p3328
I1
sS'demasiados'
p3329
I2
sS'\xe2\x80\x9c'
p3330
I204
sS'Amen\xc3\xa1bar'
p3331
I2
sS'prometen'
p3332
I2
sS'anduvieron'
p3333
I1
sS'Mackenzie_Davis'
p3334
I1
sS'parara'
p3335
I1
sS'ocasi\xc3\xb3n'
p3336
I8
sS'locas'
p3337
I1
sS'd\xc3\xada'
p3338
I9
sS'pida'
p3339
I1
sS'excepci\xc3\xb3n'
p3340
I1
sS'acordar'
p3341
I1
sS'pide'
p3342
I1
sS'fruct\xc3\xadferos'
p3343
I1
sS'tratar'
p3344
I5
sS'niega'
p3345
I1
sS'servidora'
p3346
I1
sS'tratan'
p3347
I4
sS'experiencias'
p3348
I4
sS'Cinepolis'
p3349
I1
sS'colegas'
p3350
I2
sS'Source_Code'
p3351
I1
sS'porno'
p3352
I1
sS'infortunios'
p3353
I1
sS'a_pesar_de'
p3354
I3
sS'medida'
p3355
I2
sS'destinados'
p3356
I1
sS'superaci\xc3\xb3n'
p3357
I1
sS'retirar'
p3358
I1
sS'CV'
p3359
I1
sS'travesuras'
p3360
I1
sS'descabelladas'
p3361
I1
sS'Jim_Sheridan'
p3362
I1
sS'platillo'
p3363
I1
sS'Wall-E'
p3364
I1
sS'caducidad'
p3365
I1
sS'Docournau'
p3366
I1
sS'integrado'
p3367
I1
sS'respetable'
p3368
I1
sS'mata'
p3369
I1
sS'presenciaremos'
p3370
I1
sS'espacial'
p3371
I1
sS'risa'
p3372
I1
sS'perdidamente'
p3373
I1
sS'Cambio'
p3374
I1
sS'ayudante'
p3375
I1
sS'Hot_Fuzz'
p3376
I1
sS'usaban'
p3377
I1
sS'Nicole_Kidman'
p3378
I1
sS'traje'
p3379
I2
sS'school'
p3380
I1
sS'mencionar'
p3381
I3
sS'improvisto'
p3382
I1
sS'Liza_Minelli'
p3383
I1
sS'Frank_Martin'
p3384
I1
sS'monjas'
p3385
I5
sS'soundtracks'
p3386
I1
sS'verosimilitud'
p3387
I1
sS'traumatizado'
p3388
I1
sS'peores'
p3389
I3
sS'galaxia'
p3390
I1
sS'hora'
p3391
I4
sS'puliditos'
p3392
I1
sS'ingenuo'
p3393
I1
sS'respetar'
p3394
I1
sS'Rep\xc3\xbablica_Mexicana'
p3395
I1
sS'vayamos'
p3396
I1
sS'recordada'
p3397
I1
sS'cuentan'
p3398
I1
sS'fuente'
p3399
I2
sS'partes'
p3400
I4
sS'Others'
p3401
I1
sS'ellas'
p3402
I5
sS'huele'
p3403
I3
sS'Alan_Arkin'
p3404
I1
sS'enfrentar'
p3405
I3
sS'Mona_Lisa_Smile'
p3406
I1
sS'enano'
p3407
I1
sS'incuestionable'
p3408
I2
sS'Amazon'
p3409
I1
sS'gro\xc3\x9fes'
p3410
I1
sS'Dave_Franco'
p3411
I2
sS'etapas'
p3412
I1
sS'enfrentan'
p3413
I1
sS'relativamente'
p3414
I1
sS'Total_Recall'
p3415
I1
sS'resucitado'
p3416
I1
sS'cambiar'
p3417
I3
sS'Padre'
p3418
I1
sS'h\xc3\xa9roes'
p3419
I2
sS'oscuridad'
p3420
I1
sS'preparan'
p3421
I1
sS'explayar'
p3422
I1
sS'Skyline'
p3423
I1
sS'prodigioso'
p3424
I1
sS'pandillerismo'
p3425
I1
sS'interna'
p3426
I1
sS'preocupaci\xc3\xb3n'
p3427
I2
sS'pato'
p3428
I2
sS'en_manos_de'
p3429
I1
sS'Posiblemente'
p3430
I1
sS'Elton_John'
p3431
I1
sS'2049'
p3432
I1
sS'amante'
p3433
I5
sS'referentes'
p3434
I1
sS'banquillo'
p3435
I7
sS'esp\xc3\xadas'
p3436
I4
sS'Ridley_Scott'
p3437
I3
sS'dejaba'
p3438
I1
sS'traumantes'
p3439
I1
sS'Walter_Hill'
p3440
I3
sS'costumbres'
p3441
I2
sS'm\xc3\xbasicos'
p3442
I1
sS'infantil'
p3443
I4
sS'ahorre'
p3444
I1
sS'Festival_de_Cine_de_Tribeca'
p3445
I1
sS'Alred_Molina'
p3446
I1
sS'Tim_Holt'
p3447
I1
sS'rayado'
p3448
I1
sS'total'
p3449
I5
sS'respectivos'
p3450
I1
sS'disculpa'
p3451
I1
sS'Juno'
p3452
I2
sS'negativa'
p3453
I1
sS'hospital'
p3454
I1
sS'tacazo'
p3455
I1
sS'aud\xc3\xadfonos'
p3456
I1
sS'come'
p3457
I1
sS'Christoph_Waltz'
p3458
I2
sS'referenciado'
p3459
I1
sS'guerreros'
p3460
I3
sS'mercenarios'
p3461
I2
sS'pude'
p3462
I1
sS'Antonio_Serrano'
p3463
I1
sS'precuela'
p3464
I1
sS'pudo'
p3465
I1
sS'explotar'
p3466
I1
sS'seg\xc3\xban'
p3467
I4
sS'An\xc3\xa1basis_de_Jenofonte'
p3468
I1
sS'saben'
p3469
I2
sS'Jude_Law'
p3470
I3
sS'mediometraje'
p3471
I1
sS'significado'
p3472
I1
sS'1991'
p3473
I1
sS'1990'
p3474
I1
sS'1993'
p3475
I1
sS'1992'
p3476
I1
sS'1995'
p3477
I2
sS'1997'
p3478
I1
sS'1996'
p3479
I2
sS'1999'
p3480
I1
sS'retrasados'
p3481
I1
sS'mi'
p3482
I20
sS'Ryan_Murphy'
p3483
I1
sS'permite'
p3484
I1
sS'impopularidad'
p3485
I1
sS'era'
p3486
I13
sS'psicol\xc3\xb3gicos'
p3487
I1
sS'Beautiful_Mind'
p3488
I1
sS'permito'
p3489
I1
sS'criminal'
p3490
I2
sS'El_Fett'
p3491
I3
sS'Otro'
p3492
I3
sS'novia'
p3493
I1
sS'ganadora'
p3494
I7
sS'empieza'
p3495
I2
sS'propuestas'
p3496
I1
sS'indie'
p3497
I3
sS'consigue'
p3498
I2
sS'arrancar'
p3499
I2
sS'Swan'
p3500
I2
sS'novio'
p3501
I1
sS'Otra'
p3502
I4
sS'6_de_octubre'
p3503
I1
sS'Ruso_Le\xc3\xb3n_Tolstoi'
p3504
I1
sS'Colegas'
p3505
I1
sS'habitado'
p3506
I1
sS'estaba'
p3507
I1
sS'habitada'
p3508
I1
sS'distingue'
p3509
I2
sS'trasgresor'
p3510
I2
sS'objeto'
p3511
I3
sS'magistrales'
p3512
I3
sS'interpret\xc3\xb3'
p3513
I1
sS'traen'
p3514
I1
sS'a_la_vez'
p3515
I1
sS'cambie'
p3516
I1
sS'nombre'
p3517
I17
sS'horror'
p3518
I1
sS'perturbada'
p3519
I1
sS'ONU'
p3520
I1
sS'burla'
p3521
I1
sS'adaptaci\xc3\xb3n'
p3522
I14
sS'regalando'
p3523
I1
sS'jalen'
p3524
I1
sS'buenotas'
p3525
I1
sS'Interrupted'
p3526
I1
sS'revelaci\xc3\xb3n'
p3527
I1
sS'asqueroso'
p3528
I4
sS'edificio'
p3529
I1
sS'Richard_Kelly'
p3530
I1
sS'relajaci\xc3\xb3n'
p3531
I1
sS'mesa'
p3532
I1
sS'especializada'
p3533
I2
sS'las'
p3534
I161
sS'orden'
p3535
I3
sS'Farrell'
p3536
I1
sS'padre'
p3537
I13
sS'cig\xc3\xbce\xc3\xb1a'
p3538
I1
sS'Elizabeth_Debicki'
p3539
I1
sS'animador'
p3540
I1
sS'hasta'
p3541
I33
sS'Sphere'
p3542
I1
sS'suerte'
p3543
I6
sS'penes'
p3544
I1
sS'Robert_Pattinson'
p3545
I1
sS'querid\xc3\xadsima'
p3546
I1
sS'diera'
p3547
I1
sS'Tipo'
p3548
I1
sS'echa'
p3549
I1
sS'churrazo'
p3550
I1
sS'westerns'
p3551
I2
sS'bella'
p3552
I6
sS'literaria'
p3553
I1
sS'Guerreros'
p3554
I2
sS'dignas'
p3555
I2
sS'mayor'
p3556
I7
sS'Seth_Rogen'
p3557
I1
sS'eche'
p3558
I1
sS'trama'
p3559
I14
sS'Keith_Richards'
p3560
I1
sS'd\xc3\xa9cada'
p3561
I2
sS'venta'
p3562
I1
sS'nocturno'
p3563
I1
sS'Tendr\xc3\xa1'
p3564
I1
sS'origen'
p3565
I3
sS'd\xc3\xadas'
p3566
I6
sS'Coimbra'
p3567
I1
sS'valor'
p3568
I1
sS'gamberrada'
p3569
I1
sS'3:10'
p3570
I2
sS'comprobar'
p3571
I1
sS'versus'
p3572
I1
sS'suena'
p3573
I7
sS'elegido'
p3574
I1
sS'Black_Widow'
p3575
I1
sS'excelso'
p3576
I2
sS'pueblo'
p3577
I6
sS'elegida'
p3578
I1
sS'hiciera'
p3579
I2
sS'lento'
p3580
I2
sS'traductor'
p3581
I1
sS'lenta'
p3582
I1
sS'parte'
p3583
I20
sS'Timothy_Dalton'
p3584
I1
sS'Control'
p3585
I2
sS'peligrosos'
p3586
I2
sS'vergonzosa'
p3587
I1
sS'exploraci\xc3\xb3n'
p3588
I2
sS'peor'
p3589
I6
sS'vergonzoso'
p3590
I1
sS'pobre'
p3591
I8
sS'visuales'
p3592
I1
sS'Eggsy'
p3593
I1
sS'borrachote'
p3594
I2
sS'a_la_espera_de'
p3595
I1
sS'injusticia'
p3596
I2
sS'vidas'
p3597
I2
sS'cinemat\xc3\xb3grafos'
p3598
I1
sS'asistir\xc3\xa1n'
p3599
I1
sS'Venga'
p3600
I1
sS'reparar'
p3601
I1
sS'extremos'
p3602
I1
sS'Kristen_Stewart'
p3603
I2
sS'qui\xc3\xa9nes'
p3604
I1
sS'Art_Carney'
p3605
I1
sS'crimen'
p3606
I3
sS'Cable_Guy'
p3607
I1
sS'conquistar'
p3608
I1
sS'fastuosa'
p3609
I3
sS'contempor\xc3\xa1neo'
p3610
I1
sS'luego_de'
p3611
I1
sS'seguimos'
p3612
I1
sS'reencuentra'
p3613
I1
sS'nunca'
p3614
I9
sS'nominados'
p3615
I1
sS'Saur\xc3\xb3n'
p3616
I1
sS'sacerdote'
p3617
I1
sS'matar'
p3618
I3
sS'veh\xc3\xadculo'
p3619
I2
sS'ten\xc3\xada'
p3620
I5
sS'ella'
p3621
I6
sS'admite'
p3622
I1
sS'verdadero'
p3623
I8
sS'verdadera'
p3624
I4
sS'aprecia'
p3625
I1
sS'propone'
p3626
I1
sS'ambientales'
p3627
I1
sS'elocuente'
p3628
I1
sS'villanos'
p3629
I1
sS'mundial'
p3630
I7
sS'productos'
p3631
I8
sS'productor'
p3632
I3
sS'pasaron'
p3633
I1
sS'cuartel'
p3634
I1
sS'capaces'
p3635
I1
sS'George_Stevens'
p3636
I1
sS'b\xc3\xa9lica'
p3637
I1
sS'regresa'
p3638
I4
sS'dirigidas'
p3639
I3
sS'days'
p3640
I4
sS'perdi\xc3\xb3'
p3641
I1
sS'disfrute'
p3642
I2
sS'quieran'
p3643
I1
sS'distribuidoras'
p3644
I3
sS'disfruta'
p3645
I1
sS'churrero'
p3646
I1
sS'Ojo'
p3647
I1
sS'podemos'
p3648
I4
sS'realizan'
p3649
I1
sS'devastador'
p3650
I1
sS'intentar'
p3651
I1
sS'met\xc3\xa1foras'
p3652
I1
sS'Siempre'
p3653
I2
sS'vulgar'
p3654
I1
sS'chupasangres'
p3655
I1
sS'sirenas'
p3656
I1
sS'realidad'
p3657
I12
sS'videojuego'
p3658
I1
sS'Existe'
p3659
I1
sS'manteniendo'
p3660
I1
sS'homonimo'
p3661
I1
sS'acabando'
p3662
I1
sS'comprobando'
p3663
I1
sS'rutina'
p3664
I1
sS'aferrar'
p3665
I1
sS'pasa'
p3666
I4
sS'explorador'
p3667
I1
sS'generaci\xc3\xb3n'
p3668
I1
sS'Edward_Zwick'
p3669
I2
sS'aceptes'
p3670
I1
sS'responsable'
p3671
I14
sS'solamente'
p3672
I1
sS'carrera'
p3673
I10
sS'quinta'
p3674
I2
sS'Catemaco'
p3675
I1
sS'Calypso'
p3676
I2
sS'comprender'
p3677
I2
sS'Spiderman'
p3678
I1
sS'malvado'
p3679
I2
sS'inconveniente'
p3680
I1
sS'Humphrey_Bogart'
p3681
I3
sS'Raro'
p3682
I1
sS'Dante_Harper'
p3683
I1
sS'car\xc3\xadcaturas'
p3684
I1
sS'western'
p3685
I15
sS'Theodore_Melfi'
p3686
I1
sS'postre'
p3687
I1
sS'invasor'
p3688
I1
sS'escogieron'
p3689
I1
sS'1979'
p3690
I1
sS'Acci\xc3\xb3n'
p3691
I1
sS'1978'
p3692
I1
sS'mierda'
p3693
I5
sS'basura'
p3694
I2
sS'Sex'
p3695
I2
sS'disfrutables'
p3696
I1
sS'visionarios'
p3697
I1
sS'hemos'
p3698
I1
sS'Sea'
p3699
I1
sS'criaturas'
p3700
I1
sS'asoman'
p3701
I1
sS'comprendi\xc3\xb3'
p3702
I1
sS'1975'
p3703
I3
sS'dada'
p3704
I2
sS'joyas'
p3705
I1
sS'evolucionado'
p3706
I2
sS'stop-frame'
p3707
I1
sS'tomamos'
p3708
I1
sS'Maestro'
p3709
I2
sS'salvar'
p3710
I5
sS'abominaci\xc3\xb3n'
p3711
I1
sS'hermosos'
p3712
I1
sS'galardonada'
p3713
I1
sS'Desafortunadamente'
p3714
I1
sS'monjes'
p3715
I1
sS'1969'
p3716
I1
sS'-'
p3717
I3
sS'mutante'
p3718
I2
sS'a_la_vuelta_de'
p3719
I1
sS'filmograf\xc3\xada'
p3720
I1
sS'Nueva_York'
p3721
I3
sS'tratado'
p3722
I1
sS'Bye_Shane'
p3723
I1
sS'voltear'
p3724
I1
sS'Pap\xc3\xa1'
p3725
I1
sS'Felipe_Cazals'
p3726
I1
sS'interesada'
p3727
I1
sS'ah\xc3\xad'
p3728
I14
sS'figuras'
p3729
I1
sS'peli'
p3730
I1
sS'Zodiac'
p3731
I1
sS'prostituta'
p3732
I1
sS'Probablemente'
p3733
I1
sS'Bond'
p3734
I1
sS'hist\xc3\xb3ricas'
p3735
I1
sS'ejercito'
p3736
I1
sS'alumno'
p3737
I1
sS'responder'
p3738
I1
sS'requerimos'
p3739
I1
sS'metan'
p3740
I1
sS'circunstancial'
p3741
I1
sS'producir'
p3742
I3
sS'm\xc3\xadnima'
p3743
I1
sS'televisivo'
p3744
I3
sS'reservo'
p3745
I1
sS'ocurra'
p3746
I1
sS'televisiva'
p3747
I2
sS'cambia'
p3748
I2
sS'Mr._T'
p3749
I1
sS'saga'
p3750
I18
sS'moralista'
p3751
I1
sS'The_Village'
p3752
I1
sS'\xc3\xa9pico'
p3753
I2
sS'radio'
p3754
I1
sS'Eugenio_Derbez'
p3755
I3
sS'afici\xc3\xb3n'
p3756
I1
sS'emprender'
p3757
I1
sS'\xc3\xa9pica'
p3758
I1
sS'chistes'
p3759
I1
sS'desatar'
p3760
I1
sS'sunitas'
p3761
I1
sS'media_docena'
p3762
I1
sS'chiquillos'
p3763
I2
sS'Brand'
p3764
I1
sS'Pe\xc3\xb1a'
p3765
I1
sS'Krueger'
p3766
I2
sS'testimonio'
p3767
I2
sS'p\xc3\xb3stumas'
p3768
I1
sS'atractivo'
p3769
I1
sS'atractiva'
p3770
I1
sS'veladora'
p3771
I1
sS'relatos'
p3772
I1
sS'restantes'
p3773
I1
sS'despliego'
p3774
I1
sS'Beastly'
p3775
I1
sS'do'
p3776
I1
sS'Ziggy_Stardust'
p3777
I1
sS'descenso'
p3778
I1
sS'de'
p3779
I1542
sS'da'
p3780
I11
sS'calificar'
p3781
I1
sS'Stephen_Lang'
p3782
I1
sS'joven'
p3783
I14
sS'prohibir\xc3\xada'
p3784
I1
sS'individuo'
p3785
I2
sS'aferrados'
p3786
I1
sS'Moore'
p3787
I1
sS'Abuela_Muerte'
p3788
I1
sS'majestuosa'
p3789
I1
sS'Gobernator'
p3790
I3
sS'sacerdotisa'
p3791
I1
sS'de_por_medio'
p3792
I1
sS'torturar'
p3793
I1
sS'sentido'
p3794
I4
sS'rengl\xc3\xb3n'
p3795
I2
sS'planean'
p3796
I1
sS'ofrecido'
p3797
I2
sS'Glee'
p3798
I1
sS'enfrascados'
p3799
I1
sS'jijos'
p3800
I1
sS'distante'
p3801
I1
sS'chicas'
p3802
I4
sS'Sylvester_Stallone'
p3803
I1
sS'Michel_Gondry'
p3804
I1
sS'aplaudible'
p3805
I1
sS'enemigos'
p3806
I1
sS'duelos'
p3807
I1
sS'alentador'
p3808
I1
sS'Sr._Bruckheimer'
p3809
I1
sS'muy'
p3810
I44
sS'paternal'
p3811
I2
sS'permitan'
p3812
I1
sS'bien'
p3813
I32
sS'Asensio'
p3814
I1
sS'engrandece'
p3815
I1
sS'Posibles'
p3816
I1
sS'est\xc3\xbapida'
p3817
I3
sS'sino_que'
p3818
I2
sS'ganador'
p3819
I3
sS'esp\xc3\xada'
p3820
I2
sS'vivos'
p3821
I1
sS'carisma'
p3822
I3
sS'innovador'
p3823
I2
sS'act\xc3\xbaa'
p3824
I1
sS'despu\xc3\xa9s'
p3825
I8
sS'varias'
p3826
I4
sS'Peyo'
p3827
I1
sS'Penoso'
p3828
I1
sS'ne\xc3\xb3fito'
p3829
I1
sS'cinta'
p3830
I41
sS'mientras_que'
p3831
I3
sS'manuscrito'
p3832
I1
sS'ni\xc3\xb1ez'
p3833
I1
sS'contemplado'
p3834
I1
sS'ahora'
p3835
I15
sS'raptados'
p3836
I1
sS'pitufisandeces'
p3837
I1
sS'encargo'
p3838
I1
sS'Annete_Bening'
p3839
I2
sS'costaron'
p3840
I1
sS'encarga'
p3841
I1
sS'Calabac\xc3\xadn'
p3842
I2
sS'fieles'
p3843
I1
sS'mercadol\xc3\xb3gico'
p3844
I2
sS'Tomando'
p3845
I1
sS'pandem\xc3\xb3nium'
p3846
I1
sS'tono'
p3847
I2
sS'codos'
p3848
I1
sS'James_Mangold'
p3849
I1
sS'Slade'
p3850
I2
sS'hijo'
p3851
I6
sS'mencionados'
p3852
I2
sS'avaricia'
p3853
I1
sS'hay'
p3854
I34
sS'Arkin'
p3855
I1
sS'har\xc3\xa1'
p3856
I6
sS'hija'
p3857
I3
sS'retras\xc3\xb3'
p3858
I1
sS'escenas'
p3859
I4
sS'tenemos'
p3860
I2
sS'The_Losers'
p3861
I1
sS'ofensa'
p3862
I1
sS'Aunque'
p3863
I5
sS'Roman_Polanski'
p3864
I2
sS'I\xc3\xb1arritu'
p3865
I1
sS'pasaba'
p3866
I1
sS'aplica'
p3867
I1
sS'Sideways'
p3868
I1
sS'Night'
p3869
I1
sS'Venecia'
p3870
I1
sS'Tomy_Flanagan'
p3871
I1
sS'decadentes'
p3872
I1
sS'Amantes'
p3873
I2
sS'David_Slade'
p3874
I1
sS'problem\xc3\xa1tica'
p3875
I1
sS'secuestradas'
p3876
I1
sS'anunciaban'
p3877
I1
sS'Fase'
p3878
I1
sS'Glenn_Close'
p3879
I1
sS'Woody_Allen'
p3880
I1
sS'De_el_Toro'
p3881
I1
sS'cojean'
p3882
I1
sS'se\xc3\xb1oras'
p3883
I2
sS'carajos'
p3884
I2
sS'directores'
p3885
I3
sS'acompa\xc3\xb1ado'
p3886
I6
sS'Justine'
p3887
I1
sS'perfecci\xc3\xb3n'
p3888
I2
sS'experta'
p3889
I1
sS'Baqubah'
p3890
I1
sS'experto'
p3891
I2
sS'Oscares'
p3892
I2
sS'urgido'
p3893
I2
sS'destacable'
p3894
I2
sS'Lamentable'
p3895
I1
sS'rayaba'
p3896
I1
sS'notar'
p3897
I1
sS'excelente'
p3898
I11
sS'exterior'
p3899
I1
sS'interpretando'
p3900
I1
sS'pandillas'
p3901
I2
sS'mamoncito'
p3902
I1
sS'escr\xc3\xbapulo'
p3903
I1
sS'trasero'
p3904
I2
sS'especializado'
p3905
I2
sS'ninguna'
p3906
I2
sS'Pan'
p3907
I1
sS'E.R.'
p3908
I1
sS'ocasiones'
p3909
I3
sS'susceptibilidades'
p3910
I1
sS'conscientes'
p3911
I1
sS'Brendan_Muldowney'
p3912
I1
sS'Maguire'
p3913
I2
sS'encasillado'
p3914
I1
sS'entregado'
p3915
I2
sS'posee'
p3916
I1
sS'testigo'
p3917
I1
sS'Polonia'
p3918
I2
sS'Misma'
p3919
I1
sS'Aidan_Gillen'
p3920
I1
sS'Y'
p3921
I28
sS'odisea'
p3922
I2
sS'l\xc3\xadmites'
p3923
I1
sS'm\xc3\xa9dicos'
p3924
I1
sS'dado'
p3925
I5
sS'recurso'
p3926
I2
sS'campo'
p3927
I1
sS'incautos'
p3928
I1
sS'trabajador'
p3929
I1
sS'causando'
p3930
I1
sS'chatarra'
p3931
I3
sS'1972'
p3932
I1
sS'aprender'
p3933
I1
sS'quedar\xc3\xa1'
p3934
I1
sS'supervisar'
p3935
I1
sS'alimentos'
p3936
I1
sS'pod\xc3\xada'
p3937
I1
sS'the'
p3938
I14
sS'musical'
p3939
I2
sS'etc\xc3\xa9teras'
p3940
I1
sS'especialmente'
p3941
I1
sS'toque'
p3942
I2
sS'Aguas'
p3943
I1
sS'hechos'
p3944
I2
sS'maduros'
p3945
I1
sS'Tommy_O'
p3946
I1
sS'Style'
p3947
I1
sS'Ricardo'
p3948
I1
sS'complejo'
p3949
I3
sS'Confieso'
p3950
I1
sS'reescrito'
p3951
I1
sS'ambas'
p3952
I1
sS's\xc3\xad'
p3953
I2
sS'Philippe'
p3954
I2
sS'antes'
p3955
I5
sS'banda'
p3956
I7
sS's\xc3\xa9'
p3957
I2
sS'Buscando'
p3958
I1
sS'Cine_Nacional'
p3959
I1
sS'ayudadas'
p3960
I1
sS'ricas'
p3961
I1
sS'interpreta'
p3962
I4
sS'adolescentes'
p3963
I5
sS'Tesis'
p3964
I1
sS'mencionado'
p3965
I2
sS'afortunadote'
p3966
I1
sS'cuales'
p3967
I5
sS'Martin_Campbell'
p3968
I1
sS'gustar\xc3\xada'
p3969
I2
sS's\xc3\xa1ndwich'
p3970
I1
sS'experimentado'
p3971
I3
sS'mayo'
p3972
I1
sS'Muchos'
p3973
I3
sS'Director_Joe_Carnahan'
p3974
I1
sS'Alice'
p3975
I2
sS'estanter\xc3\xadas'
p3976
I1
sS'perfecto'
p3977
I1
sS'6_horas'
p3978
I1
sS'Desde'
p3979
I2
sS'de_todas_maneras'
p3980
I1
sS'guarece'
p3981
I1
sS'traicionado'
p3982
I1
sS'padezco'
p3983
I1
sS'Rembrandt'
p3984
I1
sS'europeo'
p3985
I1
sS'animadas'
p3986
I1
sS'Jerry_Bruckheimer'
p3987
I2
sS'incorporaci\xc3\xb3n'
p3988
I1
sS'Donnie'
p3989
I5
sS'pizca'
p3990
I1
sS'50'
p3991
I1
sS'mediocridad'
p3992
I1
sS'night'
p3993
I1
sS'americano'
p3994
I10
sS'bot\xc3\xadn'
p3995
I1
sS'mamota'
p3996
I1
sS'ustedes'
p3997
I10
sS'record\xc3\xb3'
p3998
I1
sS'japos'
p3999
I1
sS'corta'
p4000
I2
sS'Italia'
p4001
I1
sS'salir'
p4002
I5
sS't\xc3\xadtere'
p4003
I1
sS'Afganist\xc3\xa1n'
p4004
I1
sS'esteroides'
p4005
I1
sS'HD'
p4006
I1
sS'podridos'
p4007
I1
sS'humor'
p4008
I9
sS'manos'
p4009
I1
sS'malignas'
p4010
I1
sS'/'
p4011
I5
sS'resoluci\xc3\xb3n'
p4012
I1
sS'teatrero'
p4013
I1
sS'semidesnudo'
p4014
I1
sS'ubican'
p4015
I1
sS'flacucho'
p4016
I1
sS'Aaron_Johnson'
p4017
I1
sS'X-Men'
p4018
I1
sS'He'
p4019
I1
sS'hist\xc3\xb3rica'
p4020
I2
sS'zombies'
p4021
I4
sS'queda'
p4022
I8
sS'ayuno'
p4023
I1
sS'suele'
p4024
I4
sS'dominada'
p4025
I1
sS'act\xc3\xbaan'
p4026
I1
sS'pensando'
p4027
I2
sS'Universidad'
p4028
I1
sS'pasi\xc3\xb3n'
p4029
I1
sS'Europa'
p4030
I3
sS'post'
p4031
I3
sS'Monstruo_de_los_Sue\xc3\xb1os'
p4032
I1
sS'Gary_Oldman'
p4033
I1
sS'chafa'
p4034
I1
sS'centennials'
p4035
I1
sS'esperan'
p4036
I1
sS'Joseph_Joffo'
p4037
I1
sS'sepa'
p4038
I1
sS'bellezas'
p4039
I1
sS'Estoy'
p4040
I1
sS'algo'
p4041
I23
sS'misma'
p4042
I14
sS'mismo'
p4043
I34
sS'org\xc3\xada'
p4044
I1
sS'saliendo'
p4045
I1
sS'personajes'
p4046
I18
sS'triturado'
p4047
I1
sS'encuentra'
p4048
I10
sS'objetivo'
p4049
I8
sS'encuentro'
p4050
I1
sS'Bourne'
p4051
I2
sS'tramando'
p4052
I1
sS'formidable'
p4053
I2
sS'pantalla'
p4054
I14
sS'uno'
p4055
I39
sS'Complementan'
p4056
I1
sS'Taron_Egerton'
p4057
I1
sS'dictador'
p4058
I1
sS'ochentera'
p4059
I1
sS'indispensable'
p4060
I1
sS'Katie_Holmes'
p4061
I1
sS'naciones'
p4062
I1
sS'Natalie_Portman'
p4063
I2
sS'tripulaci\xc3\xb3n'
p4064
I2
sS'transnacional'
p4065
I1
sS'Jovanka_Vuckovic'
p4066
I1
sS'alem\xc3\xa1n'
p4067
I2
sS'Sof\xc3\xada'
p4068
I1
sS'jam\xc3\xa1s'
p4069
I2
sS'consumaci\xc3\xb3n'
p4070
I1
sS'Principe_de_Persia'
p4071
I1
sS'Superbad'
p4072
I1
sS'indicada'
p4073
I1
sS'esposo'
p4074
I2
sS'esposa'
p4075
I5
sS'menguado'
p4076
I1
sS'subsistir'
p4077
I1
sS'disturbios'
p4078
I1
sS'Louis_Leterrier'
p4079
I1
sS'fest\xc3\xadn'
p4080
I1
sS'galard\xc3\xb3n'
p4081
I1
sS'mercado'
p4082
I2
sS'robar'
p4083
I1
sS'sufre'
p4084
I1
sS'segura'
p4085
I1
sS'viva'
p4086
I1
sS'de_repente'
p4087
I2
sS'Se\xc3\xb1or_Tarantino'
p4088
I1
sS'vive'
p4089
I1
sS'Lou_de_La\xc3\xa2ge'
p4090
I1
sS'Piratas'
p4091
I1
sS'ancestral'
p4092
I1
sS'Morpheus'
p4093
I1
sS'intentos'
p4094
I1
sS'The_Imaginarium'
p4095
I1
sS'repugnante'
p4096
I2
sS'supo'
p4097
I1
sS'asistiremos'
p4098
I1
sS'Lu\xc3\xads'
p4099
I1
sS'continuaci\xc3\xb3n'
p4100
I1
sS'lleve'
p4101
I2
sS'inclusive'
p4102
I10
sS'llevo'
p4103
I1
sS'Graham_Greene'
p4104
I1
sS'propio'
p4105
I3
sS'magnifico'
p4106
I2
sS'vecino'
p4107
I2
sS'chutaron'
p4108
I1
sS'M._Night_Shyamalan'
p4109
I1
sS'cicatrices'
p4110
I1
sS'ni'
p4111
I21
sS'cuya'
p4112
I2
sS'pretensiones'
p4113
I2
sS'Richard_Jenkins'
p4114
I1
sS'ayuden'
p4115
I1
sS'sorpresas'
p4116
I1
sS'inh\xc3\xb3spitas'
p4117
I1
sS'entrevistas'
p4118
I1
sS'reality'
p4119
I1
sS'derrotar'
p4120
I1
sS'llueve'
p4121
I1
sS'rasgar'
p4122
I1
sS'Toma_Kevin_Costner'
p4123
I1
sS'Kleine_V\xc3\xb6gel'
p4124
I1
sS'The_White_Ribbon'
p4125
I1
sS'nom\xc3\xa1s'
p4126
I1
sS'aqu\xc3\xad'
p4127
I8
sS'escala'
p4128
I1
sS'ir\xc3\xb3nico'
p4129
I1
sS'\xc3\xa9stas'
p4130
I1
sS'posicionar'
p4131
I2
sS'aderezada'
p4132
I1
sS'Kirsten_Dunst'
p4133
I1
sS'trailers'
p4134
I1
sS'consolid\xc3\xb3'
p4135
I1
sS'sienta'
p4136
I1
sS'Su'
p4137
I8
sS'siente'
p4138
I3
sS'responsables'
p4139
I4
sS'inculpar'
p4140
I1
sS'La_Mars'
p4141
I1
sS'dulce'
p4142
I1
sS'Unos'
p4143
I2
sS'r\xc3\xa1pidamente'
p4144
I3
sS'juguete'
p4145
I1
sS'Merl\xc3\xadn'
p4146
I1
sS'levantar'
p4147
I1
sS'abertura'
p4148
I1
sS'inquebrantables'
p4149
I1
sS'cubriendo'
p4150
I1
sS'nefasta'
p4151
I1
sS'participaci\xc3\xb3n'
p4152
I2
sS'Abigail_Breslin'
p4153
I1
sS'particular'
p4154
I3
sS'Bridget_Moynahan'
p4155
I1
sS'tr\xc3\xa1iler'
p4156
I1
sS'gradualmente'
p4157
I1
sS'Todas'
p4158
I1
sS'padrino'
p4159
I1
sS'aprisionan'
p4160
I1
sS'Demi\xc3\xa1n_Bichir'
p4161
I1
sS'1949'
p4162
I1
sS'Columbia'
p4163
I1
sS'vascas'
p4164
I1
sS'ensuciar'
p4165
I1
sS'Burn'
p4166
I1
sS'quienes'
p4167
I1
sS'Celda'
p4168
I2
sS'Les'
p4169
I4
sS'librada'
p4170
I1
sS'terror'
p4171
I13
sS'retratos'
p4172
I1
sS'librado'
p4173
I2
sS'Blade_Runner'
p4174
I4
sS'f\xc3\xadlmicos'
p4175
I1
sS'Day'
p4176
I2
sS'educar'
p4177
I1
sS'acreedor'
p4178
I1
sS'involucrados'
p4179
I1
sS'espa\xc3\xb1ol'
p4180
I2
sS'fetiche'
p4181
I5
sS'ven\xc3\xa9reas'
p4182
I1
sS'estatutos'
p4183
I1
sS'cumple'
p4184
I1
sS'Judi_Dench'
p4185
I1
sS'vestido'
p4186
I1
sS'terror\xc3\xadfica'
p4187
I2
sS'rom\xc3\xa1nticas'
p4188
I1
sS'Ana_de_la_Reguera'
p4189
I1
sS'edad'
p4190
I3
sS'Russell_Crowe'
p4191
I1
sS'otorgando'
p4192
I1
sS'Patriot_Games'
p4193
I1
sS'A_Painted_Devil'
p4194
I1
sS'aparecen'
p4195
I1
sS'Demian_Bichir'
p4196
I1
sS'repetitivo'
p4197
I3
sS'Rey'
p4198
I1
sS'excremento'
p4199
I1
sS'cuasi-profeta'
p4200
I1
sS'hecatombe'
p4201
I1
sS'90_minutos'
p4202
I1
sS'invaden'
p4203
I1
sS'reviste'
p4204
I1
sS'est\xc3\xb3mago'
p4205
I2
sS'revista'
p4206
I1
sS'Excelsa'
p4207
I1
sS'encima'
p4208
I2
sS'cargo'
p4209
I4
sS'Jack_Palance'
p4210
I1
sS'ooprtunidad'
p4211
I1
sS'Guillermo_de_el_Toro'
p4212
I1
sS'suelo'
p4213
I2
sS'grabando'
p4214
I1
sS'pajaro'
p4215
I1
sS'histri\xc3\xb3nicos'
p4216
I2
sS'Ford'
p4217
I2
sS'quedar'
p4218
I4
sS'suelos'
p4219
I1
sS'William_Munny'
p4220
I1
sS'Imagine'
p4221
I1
sS'sobreviv\xc3\xadan'
p4222
I1
sS'giratoria'
p4223
I1
sS'enfermedad'
p4224
I1
sS'haci\xc3\xa9ndola_ver'
p4225
I1
sS'particularmente'
p4226
I1
sS'dedicadas'
p4227
I1
sS'sacar'
p4228
I3
sS'Benny'
p4229
I1
sS'raz\xc3\xb3n'
p4230
I4
sS'American_Film_Institute'
p4231
I1
sS'horrendas'
p4232
I1
sS'aunque'
p4233
I8
sS'U.N.C.L.E.'
p4234
I2
sS'hilos'
p4235
I1
sS'Abstenga'
p4236
I1
sS'sinopsis'
p4237
I6
sS'abus\xc3\xb3'
p4238
I1
sS'versiones'
p4239
I1
sS'Narra'
p4240
I1
sS'galer\xc3\xada'
p4241
I1
sS'culpa'
p4242
I3
sS'boletos'
p4243
I2
sS'Dead'
p4244
I1
sS'tocado'
p4245
I4
sS'lleva_a_cabo'
p4246
I1
sS'karatekas'
p4247
I1
sS'equiparable'
p4248
I1
sS'Jeff_Baena'
p4249
I1
sS'Depp'
p4250
I4
sS'Claude_Barras'
p4251
I1
sS'televisi\xc3\xb3n'
p4252
I9
sS'maravillosas'
p4253
I4
sS's\xc3\xadmbolo'
p4254
I1
sS'elegancia'
p4255
I1
sS'memorable'
p4256
I1
sS'C\xc3\xa9sar'
p4257
I1
sS'llevar\xc3\xa1n'
p4258
I1
sS'trinidad'
p4259
I1
sS'selecto'
p4260
I1
sS'desgraciadamente'
p4261
I1
sS'inversi\xc3\xb3n'
p4262
I1
sS'aniquilar'
p4263
I1
sS'anterioridad'
p4264
I1
sS'ande'
p4265
I1
sS'anda'
p4266
I5
sS'mitad'
p4267
I3
sS'francesa'
p4268
I2
sS'libra'
p4269
I1
sS'todas'
p4270
I15
sS'conquistador'
p4271
I1
sS'ocupaci\xc3\xb3n'
p4272
I1
sS'cobrado'
p4273
I1
sS'rinden'
p4274
I1
sS'implicados'
p4275
I1
sS'compa\xc3\xb1eros'
p4276
I2
sS'embarazadas'
p4277
I1
sS'conductor'
p4278
I1
sS'Evo'
p4279
I1
sS'Opera'
p4280
I1
sS'salta'
p4281
I1
sS'libre'
p4282
I2
sS'contienen'
p4283
I1
sS'anuncio'
p4284
I1
sS'teaser'
p4285
I1
sS'cazafantasmas'
p4286
I1
sS'Time'
p4287
I1
sS'detalle'
p4288
I3
sS'violencia'
p4289
I5
sS'Mary_Elizabeth_Winstead'
p4290
I1
sS'descubre'
p4291
I2
sS'renombradas'
p4292
I1
sS'corrupci\xc3\xb3n'
p4293
I2
sS'variados'
p4294
I2
sS'\xc3\x89l'
p4295
I1
sS'Down'
p4296
I1
sS'esperamos'
p4297
I1
sS'recaudar\xc3\xa1n'
p4298
I1
sS'cabeza'
p4299
I2
sS'a_el_igual_que'
p4300
I2
sS'doblaje'
p4301
I4
sS'cae'
p4302
I2
sS'psicol\xc3\xb3gica'
p4303
I1
sS'figura'
p4304
I7
sS'crepusculares'
p4305
I1
sS'tintes'
p4306
I2
sS'petrolera'
p4307
I1
sS'construir'
p4308
I2
sS'desierto'
p4309
I1
sS'psicol\xc3\xb3gico'
p4310
I3
sS'perder'
p4311
I6
sS'Cormack_McCarthy'
p4312
I1
sS'apariciones'
p4313
I1
sS'chin'
p4314
I1
sS'Seamos'
p4315
I2
sS'compraron'
p4316
I1
sS'La_Odisea'
p4317
I1
sS'revoltosa'
p4318
I1
sS'lluvia'
p4319
I2
sS'viendo'
p4320
I2
sS'cardinal'
p4321
I1
sS'Alemania'
p4322
I1
sS'rubia'
p4323
I1
sS'estelarizada'
p4324
I1
sS'remambaramba'
p4325
I1
sS'!'
p4326
I65
sS'tardado'
p4327
I1
sS'sangrantes'
p4328
I1
sS'License'
p4329
I1
sS'adoptado'
p4330
I1
sS'en_pos_de'
p4331
I1
sS'Ryan_Reynolds'
p4332
I1
sS'diva'
p4333
I1
sS'atropellada'
p4334
I1
sS'preocupada'
p4335
I1
sS'Annie_Clark'
p4336
I1
sS'produce'
p4337
I3
sS'espa\xc3\xb1ola'
p4338
I1
sS'mercenario'
p4339
I2
sS'Realidad_Virtual_El'
p4340
I1
sS'patriarcal'
p4341
I1
sS'esperar'
p4342
I7
sS'bolsillo'
p4343
I2
sS'encabezado'
p4344
I4
sS'Daniel_Day-Lewis'
p4345
I1
sS'de_la_mano_de'
p4346
I2
sS'vaya'
p4347
I3
sS'acordes'
p4348
I1
sS'tierra'
p4349
I1
sS'infra-cinematogr\xc3\xa1ficos'
p4350
I1
sS'manera'
p4351
I9
sS'rechaz\xc3\xb3'
p4352
I1
sS'pens\xc3\xa9'
p4353
I1
sS'monstruo'
p4354
I1
sS'cortes\xc3\xada'
p4355
I1
sS'guion'
p4356
I14
sS'Jason_Momoa'
p4357
I1
sS'Ciencia_Ficci\xc3\xb3n'
p4358
I1
sS'Nacho_Libre'
p4359
I1
sS'diferentes'
p4360
I2
sS'tragicomedia'
p4361
I1
sS'venas'
p4362
I1
sS'William_P._Young'
p4363
I1
sS'hacia'
p4364
I7
sS'Massetto'
p4365
I2
sS'llegando'
p4366
I1
sS'caigan'
p4367
I1
sS'elegante'
p4368
I2
sS'forma'
p4369
I9
sS'previas'
p4370
I1
sS'misticismo'
p4371
I1
sS'acechada'
p4372
I1
sS'pistolero'
p4373
I4
sS'Tim_McGraw'
p4374
I1
sS'Huston'
p4375
I2
sS'a_cambio_de'
p4376
I1
sS'participaciones'
p4377
I2
sS'Dirige'
p4378
I3
sS'entretenidas'
p4379
I1
sS'monetarios'
p4380
I1
sS'cap\xc3\xadtulos'
p4381
I1
sS'buenos'
p4382
I8
sS'longevas'
p4383
I1
sS'13_de_Agosto'
p4384
I1
sS'comparando'
p4385
I1
sS'recae'
p4386
I1
sS'The_Secret_Service'
p4387
I1
sS'adrenalina'
p4388
I2
sS'humanitarios'
p4389
I1
sS'1958'
p4390
I1
sS'nos'
p4391
I80
sS'inmiscuido'
p4392
I1
sS'b\xc3\xa1sicamente'
p4393
I2
sS'relleno'
p4394
I2
sS'opera'
p4395
I3
sS'daba'
p4396
I1
sS'Cuando'
p4397
I8
sS'Paguen'
p4398
I1
sS'c\xc3\xb3mica'
p4399
I3
sS'rubros'
p4400
I5
sS'inquisici\xc3\xb3n'
p4401
I1
sS'muchas'
p4402
I5
sS'c\xc3\xb3mico'
p4403
I2
sS'Milk'
p4404
I1
sS'Tony_E._Valenzuela'
p4405
I1
sS'el'
p4406
I1034
sS'en'
p4407
I601
sS'asusten'
p4408
I2
sS'A_pesar_de'
p4409
I5
sS'descalabro'
p4410
I1
sS'pol\xc3\xadticos'
p4411
I2
sS'Pero'
p4412
I8
sS'mermar'
p4413
I1
sS'Guadalajara'
p4414
I2
sS'percat\xc3\xa9'
p4415
I1
sS'recibir'
p4416
I2
sS'ex'
p4417
I5
sS'Eugenio'
p4418
I2
sS'encantador'
p4419
I2
sS'acepta'
p4420
I2
sS'es'
p4421
I199
sS'brillantemente'
p4422
I1
sS'dise\xc3\xb1ados'
p4423
I1
sS'Rob_Lowe'
p4424
I1
sS'tecnologizado'
p4425
I1
sS'Dicen'
p4426
I1
sS'Screamers'
p4427
I2
sS'Ohh_Cin\xc3\xa9filos'
p4428
I1
sS'interpretaciones'
p4429
I1
sS'Los_Guerreros'
p4430
I1
sS'viable'
p4431
I1
sS'shows'
p4432
I2
sS'El_Perla_Negra'
p4433
I1
sS'Quiz\xc3\xa1'
p4434
I2
sS'asistir'
p4435
I1
sS'soltera'
p4436
I1
sS'The_World'
p4437
I1
sS'Fiel'
p4438
I1
sS'Harper_Glen_Powell'
p4439
I1
sS'cambiamos'
p4440
I2
sS'guardia'
p4441
I1
sS'Helen_Mirren'
p4442
I2
sS'guionista'
p4443
I5
sS'Por_ejemplo'
p4444
I1
sS'ca\xc3\xadda'
p4445
I1
sS'costar'
p4446
I1
sS'Harry_Morgan'
p4447
I1
sS'cara'
p4448
I4
sS'Maggie_Q'
p4449
I1
sS'libretos'
p4450
I1
sS'tinieblas'
p4451
I1
sS'gusta'
p4452
I3
sS'luego'
p4453
I2
sS'masoquistas'
p4454
I1
sS'empezando'
p4455
I1
sS'Jos\xc3\xa9_Maria_Yaspik'
p4456
I1
sS'gusto'
p4457
I6
sS'motion'
p4458
I2
sS'qui\xc3\xa9n'
p4459
I1
sS'resultados'
p4460
I4
sS'promesa'
p4461
I2
sS'oscura'
p4462
I2
sS'1000'
p4463
I1
sS'sobrestimada'
p4464
I1
sS'entregas'
p4465
I3
sS'existen'
p4466
I1
sS'explicaci\xc3\xb3n'
p4467
I1
sS'mexicanos'
p4468
I1
sS'pa'
p4469
I5
sS'combinaci\xc3\xb3n'
p4470
I2
sS'infestar'
p4471
I1
sS'con'
p4472
I262
sS'Dos'
p4473
I1
sS'Hollywood'
p4474
I9
sS'amenaza'
p4475
I2
sS'aclama'
p4476
I1
sS'llegar'
p4477
I9
sS'maestras'
p4478
I1
sS'Minority_Report'
p4479
I1
sS'riesgo'
p4480
I2
sS'basada'
p4481
I6
sS'Dato'
p4482
I5
sS'The_Little_Hours'
p4483
I1
sS'Estelariza'
p4484
I1
sS'jugo'
p4485
I1
sS'llegan'
p4486
I2
sS'mar\xc3\xadtimas'
p4487
I2
sS'basado'
p4488
I4
sS'elementos'
p4489
I3
sS'animado'
p4490
I2
sS'Johansson'
p4491
I1
sS'copa'
p4492
I1
sS'Alcazar'
p4493
I1
sS'Chris_Columbus'
p4494
I1
sS'Bruckheimer'
p4495
I1
sS'auditivo'
p4496
I1
sS'viejas'
p4497
I1
sS'sobrevivir'
p4498
I1
sS'animada'
p4499
I5
sS'pelea'
p4500
I2
sS'transcurre'
p4501
I1
sS'Chicogrande_un_Villista'
p4502
I1
sS'bajo'
p4503
I7
sS'baja'
p4504
I2
sS'Duncan_Jones'
p4505
I1
sS'Black_Hawk_Down'
p4506
I1
sS'Love'
p4507
I1
sS'ochenta'
p4508
I1
sS'hermos\xc3\xadsima'
p4509
I1
sS'destinos'
p4510
I1
sS'aplaudidas'
p4511
I1
sS'revolucione'
p4512
I1
sS'a_el_rededor'
p4513
I1
sS'chuto'
p4514
I1
sS'contamos'
p4515
I1
sS'exacerbado'
p4516
I2
sS'marines'
p4517
I1
sS'Oscar_Adrien_Brody'
p4518
I1
sS'sublime'
p4519
I1
sS'estudio'
p4520
I1
sS'territorio'
p4521
I1
sS'sello'
p4522
I2
sS'Toro'
p4523
I2
sS'estudia'
p4524
I1
sS'de_pacotilla'
p4525
I1
sS'sequ\xc3\xada'
p4526
I1
sS'sin\xc3\xb3nimo'
p4527
I1
sS'segu\xc3\xada'
p4528
I1
sS'\xc3\xbaltima'
p4529
I9
sS'Josh_Brolin'
p4530
I1
sS'alimenticios'
p4531
I1
sS'emblem\xc3\xa1ticos'
p4532
I1
sS'suspenso'
p4533
I3
sS'reuni\xc3\xb3n'
p4534
I1
sS'predecesoras'
p4535
I1
sS'compa\xc3\xb1ia'
p4536
I1
sS'digerir'
p4537
I1
sS'chulada'
p4538
I1
sS'flacucha'
p4539
I1
sS'ideas'
p4540
I2
sS'mexicana'
p4541
I6
sS'Michelle_Rodr\xc3\xadguez'
p4542
I1
sS'Ojal\xc3\xa1'
p4543
I1
sS'exagerado'
p4544
I1
sS'cinematogr\xc3\xa1ficos'
p4545
I2
sS'grande'
p4546
I10
sS'andante'
p4547
I1
sS'urge'
p4548
I3
sS'convento'
p4549
I5
sS'narcotraficantes'
p4550
I1
sS'tornado'
p4551
I1
sS'Dudley_Moore'
p4552
I1
sS'numero'
p4553
I1
sS'disputan'
p4554
I1
sS'antecedentes'
p4555
I1
sS'reales'
p4556
I1
sS'credibilidad'
p4557
I1
sS'pr\xc3\xb3xima'
p4558
I2
sS'pr\xc3\xb3ximo'
p4559
I3
sS'compart\xc3\xada'
p4560
I1
sS'falla'
p4561
I1
sS'paseo'
p4562
I1
sS'espeluznante'
p4563
I1
sS'30_minutos'
p4564
I1
sS'alguno'
p4565
I1
sS'Esos'
p4566
I1
sS'mundiales'
p4567
I1
sS'declive'
p4568
I1
sS'alguna'
p4569
I5
sS'peque\xc3\xb1os'
p4570
I1
sS'chingadazos'
p4571
I1
sS'piratas'
p4572
I1
sS'Roy_Hill'
p4573
I1
sS'Cousteau'
p4574
I4
sS'nominado'
p4575
I3
sS'Kung_Fu'
p4576
I1
sS'esconde'
p4577
I1
sS'promoci\xc3\xb3n'
p4578
I3
sS'tendencia'
p4579
I2
sS'actualidad'
p4580
I2
sS'claves'
p4581
I1
sS'Seguimos'
p4582
I1
sS'derechos'
p4583
I1
sS'rendir'
p4584
I1
sS'llamaron'
p4585
I1
sS'griegos'
p4586
I1
sS'discute'
p4587
I1
sS'finalmente'
p4588
I3
sS'pol\xc3\xadc\xc3\xada'
p4589
I1
sS'result\xc3\xb3'
p4590
I2
sS'hace'
p4591
I19
sS'marciales'
p4592
I1
sS'Debe'
p4593
I1
sS'cinemat\xc3\xb3grafo'
p4594
I1
sS'psicosis'
p4595
I1
sS'confiable'
p4596
I1
sS'oscuro'
p4597
I1
sS'Kim_Cattrall'
p4598
I1
sS'escena'
p4599
I6
sS'The_Invitation'
p4600
I1
sS'internacional'
p4601
I3
sS'tienden'
p4602
I1
sS'desea'
p4603
I1
sS'Benjamin_Button'
p4604
I1
sS'Ser\xc3\xa1'
p4605
I7
sS's\xc3\xa1tira'
p4606
I2
sS'oeste'
p4607
I2
sS'logr\xc3\xb3'
p4608
I4
sS'deseo'
p4609
I1
sS'Cazals'
p4610
I1
sS'Parroquia_de_la_Sagrada_Familia'
p4611
I1
sS'confiar'
p4612
I1
sS'Luther'
p4613
I1
sS'filmaci\xc3\xb3n'
p4614
I1
sS'prueba'
p4615
I2
sS'Statham'
p4616
I1
sS'\xc3\xb3pera'
p4617
I1
sS'toca'
p4618
I1
sS'viudo'
p4619
I1
sS'masas'
p4620
I1
sS'Richard_Harris'
p4621
I1
sS'f\xc3\xa1ciles'
p4622
I1
sS'estereoscopia'
p4623
I1
sS'crecidito'
p4624
I2
sS'intimidad'
p4625
I1
sS'vienen'
p4626
I3
sS'dobla'
p4627
I1
sS'vencedora'
p4628
I1
sS'unidos'
p4629
I1
sS'doble'
p4630
I3
sS'dramas'
p4631
I2
sS'hostil'
p4632
I2
sS'exportaci\xc3\xb3n'
p4633
I1
sS'creaci\xc3\xb3n'
p4634
I1
sS'octubre'
p4635
I1
sS'depredadores'
p4636
I1
sS'ocurren'
p4637
I1
sS'miseria'
p4638
I1
sS'extra\xc3\xb1a'
p4639
I1
sS'convertido'
p4640
I1
sS'babosos'
p4641
I1
sS'comediante'
p4642
I2
sS'M\xc3\xa1s'
p4643
I2
sS'dirigida'
p4644
I8
sS'1925'
p4645
I1
sS'Creo'
p4646
I1
sS'culpable'
p4647
I2
sS'aceptado'
p4648
I1
sS'estamos'
p4649
I13
sS'dirigido'
p4650
I5
sS'Todos'
p4651
I3
sS'Implicados'
p4652
I26
sS'Ernesto_G\xc3\xb3mez_Cruz'
p4653
I1
sS'ventr\xc3\xadlocuos'
p4654
I1
sS'3'
p4655
I5
sS'siquiera'
p4656
I2
sS'estar'
p4657
I4
sS'estas'
p4658
I25
sS'No_Country_For_Old_Men'
p4659
I1
sS'empat\xc3\xada'
p4660
I1
sS'antolog\xc3\xada'
p4661
I1
sS'excepcional'
p4662
I5
sS'destreza'
p4663
I2
sS'comedia'
p4664
I11
sS'dinero'
p4665
I12
sS'amplia'
p4666
I1
sS'misterioso'
p4667
I1
sS'como'
p4668
I159
sS'halc\xc3\xb3n'
p4669
I1
sS'inflen'
p4670
I1
sS'compositor'
p4671
I1
sS'deleite'
p4672
I3
sS'misteriosa'
p4673
I3
sS'Nom\xc3\xa1s'
p4674
I1
sS'vivi\xc3\xb3'
p4675
I1
sS'comen'
p4676
I2
sS'cinematogr\xc3\xa1fico'
p4677
I6
sS'Cruzade'
p4678
I1
sS'ciertos'
p4679
I4
sS'deportes'
p4680
I1
sS'exijan'
p4681
I1
sS'cinematogr\xc3\xa1fica'
p4682
I8
sS'hermanas'
p4683
I1
sS'Philharmonia_Orchestra'
p4684
I1
sS'agarra'
p4685
I1
sS'Resalta'
p4686
I1
sS'quien'
p4687
I23
sS'atravesar'
p4688
I1
sS'treinta_minutos'
p4689
I1
sS'6'
p4690
I3
sS'moralistas'
p4691
I1
sS'color'
p4692
I1
sS'cuando'
p4693
I31
sS'Wild_Wild_West'
p4694
I1
sS'Hangover'
p4695
I1
sS'ayudantes'
p4696
I1
sS'desmayado'
p4697
I1
sS'criado'
p4698
I1
sS'pongan'
p4699
I2
sS'bizarra'
p4700
I1
sS'siete'
p4701
I3
sS'contrario'
p4702
I1
sS'Videocine'
p4703
I2
sS'Doctora'
p4704
I1
sS'arrepentir'
p4705
I1
sS'guionistas'
p4706
I5
sS'programado'
p4707
I1
sS'cre\xc3\xb3'
p4708
I1
sS'cumpliendo'
p4709
I2
sS'asesino'
p4710
I2
sS'1982'
p4711
I1
sS'cercan\xc3\xada'
p4712
I1
sS'asesina'
p4713
I1
sS'500'
p4714
I2
sS'mar\xc3\xadtima'
p4715
I1
sS'pena'
p4716
I8
sS'Elizabeth_Gilbert'
p4717
I1
sS'ala'
p4718
I1
sS'intercambio'
p4719
I1
sS'conciliar'
p4720
I1
sS'elogiada'
p4721
I1
sS'convencionales'
p4722
I1
sS'intenciones'
p4723
I1
sS'esperpento'
p4724
I1
sS'Am\xc3\xa9rica_de_el_Sur'
p4725
I1
sS'tatuado'
p4726
I1
sS'Anthony_Hopkins'
p4727
I1
sS'Vincent'
p4728
I2
sS'hostiles'
p4729
I1
sS'aliviadora'
p4730
I1
sS'representar'
p4731
I2
sS'ver\xc3\xa1n'
p4732
I2
sS'magn\xc3\xadfico'
p4733
I3
sS'ameno'
p4734
I1
sS'casa'
p4735
I12
sS'cruza'
p4736
I1
sS'incluye'
p4737
I2
sS'prematura'
p4738
I1
sS'magn\xc3\xadfica'
p4739
I1
sS'enamora'
p4740
I3
sS'intacta'
p4741
I1
sS'entrega'
p4742
I19
sS'Abstener'
p4743
I1
sS'disparo'
p4744
I2
sS'buen'
p4745
I22
sS'incluyendo'
p4746
I3
sS'habitante'
p4747
I1
sS'permiten'
p4748
I1
sS'Dice'
p4749
I17
sS'velocidad'
p4750
I1
sS'eran'
p4751
I3
sS'1981'
p4752
I2
sS'gringo'
p4753
I1
sS'Definitivamente'
p4754
I5
sS'juntos'
p4755
I5
sS'Garance_Marillier'
p4756
I2
sS'gringa'
p4757
I2
sS'Completa'
p4758
I2
sS'narra'
p4759
I6
sS'medio'
p4760
I2
sS'RachelNichols'
p4761
I1
sS'media'
p4762
I4
sS'comparten'
p4763
I1
sS'hero\xc3\xadna'
p4764
I3
sS'Repo'
p4765
I1
sS'sencilla'
p4766
I3
sS'catarsis'
p4767
I1
sS'delictuosa'
p4768
I1
sS'herej\xc3\xada'
p4769
I1
sS'claustro'
p4770
I1
sS'mezclando'
p4771
I1
sS'todos'
p4772
I31
sS'Mike_Myers'
p4773
I1
sS'Globos_de_Oro'
p4774
I2
sS'hundido'
p4775
I2
sS'atroces'
p4776
I1
sS'persona'
p4777
I1
sS'ni_que'
p4778
I1
sS'hipsters-existencialistas-mamertos'
p4779
I1
sS'magn\xc3\xadficas'
p4780
I1
sS'yo'
p4781
I8
sS'matices'
p4782
I1
sS'entonces'
p4783
I1
sS'director'
p4784
I54
sS'proyecto'
p4785
I5
sS'aument\xc3\xb3'
p4786
I1
sS'aparece'
p4787
I2
sS'infinidad'
p4788
I1
sS'tem\xc3\xa1tica'
p4789
I1
sS'sobresaliente'
p4790
I1
sS'sumamos'
p4791
I1
sS'Espa\xc3\xb1a'
p4792
I1
sS'no'
p4793
I204
sS'desborda'
p4794
I1
sS'radica'
p4795
I2
sS'dupla'
p4796
I1
sS'castidad'
p4797
I1
sS'severa'
p4798
I1
sS'na'
p4799
I2
sS'severo'
p4800
I1
sS'irreverencia'
p4801
I1
sS'Festival_Sitges'
p4802
I1
sS'calificaci\xc3\xb3n'
p4803
I2
sS'visto'
p4804
I9
sS'Jason_Isaacs'
p4805
I1
sS'realizadora'
p4806
I1
sS'charquillos'
p4807
I1
sS'largometraje'
p4808
I2
sS'ley\xc3\xb3'
p4809
I1
sS'kill'
p4810
I1
sS'Xanad\xc3\xba'
p4811
I1
sS'asesinadas'
p4812
I1
sS'convencionalismo'
p4813
I1
sS'pr\xc3\xb3ximamente'
p4814
I1
sS'raciales'
p4815
I1
sS'vagabundos'
p4816
I1
sS'pretendiente'
p4817
I1
sS'blog'
p4818
I3
sS'hom\xc3\xb3nima'
p4819
I6
sS'definitivamente'
p4820
I1
sS'llevar\xc3\xa1'
p4821
I1
sS'hom\xc3\xb3nimo'
p4822
I1
sS'protecci\xc3\xb3n'
p4823
I1
sS'Tierra'
p4824
I1
sS'real'
p4825
I7
sS'Globo'
p4826
I1
sS'mismos'
p4827
I2
sS'vasca'
p4828
I1
sS'Matt_Ocre'
p4829
I1
sS'Tuck'
p4830
I1
sS'ama'
p4831
I1
sS'Direcci\xc3\xb3n'
p4832
I2
sS'lado'
p4833
I4
sS'Eclipse'
p4834
I1
sS'fiable'
p4835
I1
sS'Nicholas_Hoult'
p4836
I3
sS'Jason_Statham'
p4837
I1
sS'campos'
p4838
I1
sS'prescinde'
p4839
I1
sS'Gladiador'
p4840
I1
sS'sagrada'
p4841
I1
sS'tanto'
p4842
I12
sS'Adem\xc3\xa1s_de'
p4843
I1
sS'tanta'
p4844
I1
sS'episodios'
p4845
I1
sS'fortuna'
p4846
I2
sS'a_leguas'
p4847
I1
sS'espectador'
p4848
I8
sS'Melissa_Leo'
p4849
I1
sS'famosos'
p4850
I2
sS'mantener'
p4851
I5
sS'filmadas'
p4852
I1
sS'se\xc3\xb1ores'
p4853
I2
sS'Cleon'
p4854
I1
sS'comentarios'
p4855
I2
sS'invertidos'
p4856
I1
sS'productores'
p4857
I4
sS'interesante'
p4858
I6
sS'perseguidos'
p4859
I2
sS'asediados'
p4860
I1
sS'multifac\xc3\xa9tico'
p4861
I1
sS'Mark'
p4862
I1
sS'Marv'
p4863
I1
sS'Miguel_Hidalgo'
p4864
I1
sS'Tobey_Maguire'
p4865
I1
sS'estereotipos'
p4866
I1
sS'servicio'
p4867
I1
sS'quiz\xc3\xa1'
p4868
I6
sS'trapito'
p4869
I1
sS'espectaculo'
p4870
I1
sS'pr\xc3\xb3logo'
p4871
I2
sS'crueles'
p4872
I1
sS'sugiere'
p4873
I1
sS'men\xc3\xba'
p4874
I1
sS'leg\xc3\xadtima'
p4875
I1
sS'Sargento_Mayor_McGregor_Hemos'
p4876
I1
sS'llevada'
p4877
I1
sS'amigo'
p4878
I2
sS'galardones'
p4879
I2
sS'dicen'
p4880
I5
sS'extinci\xc3\xb3n'
p4881
I1
sS'llevado'
p4882
I3
sS'concuerdo'
p4883
I1
sS'Antonio_Banderas'
p4884
I1
sS'advertencias'
p4885
I2
sS'Cordero_de_Dios'
p4886
I1
sS'polaco'
p4887
I2
sS'Adam_Scott'
p4888
I1
sS'adorado'
p4889
I2
sS'Rango'
p4890
I2
sS'Abel'
p4891
I1
sS'producci\xc3\xb3n'
p4892
I19
sS'Goya'
p4893
I3
sS'Este'
p4894
I7
sS'central'
p4895
I1
sS'creadores'
p4896
I1
sS'hostigados'
p4897
I1
sS'Blood_Diamond'
p4898
I1
sS'of'
p4899
I18
sS'enardecida'
p4900
I1
sS'Esto'
p4901
I10
sS'sabr\xc3\xa1'
p4902
I1
sS'hueva'
p4903
I1
sS'Unfogiven'
p4904
I1
sS'Tim_Allen'
p4905
I1
sS'centrar'
p4906
I2
sS'cubrir'
p4907
I1
sS'os'
p4908
I1
sS'dedos'
p4909
I2
sS'trayendo'
p4910
I1
sS'atra\xc3\xadda'
p4911
I1
sS'Mad_Men'
p4912
I1
sS'ganado'
p4913
I1
sS'b\xc3\xbasqueda'
p4914
I3
sS'educaban'
p4915
I1
sS'morir'
p4916
I2
sS'thriller-drama-rom\xc3\xa1ntico'
p4917
I1
sS'amiga'
p4918
I2
sS'modernista'
p4919
I1
sS'Cabo_Enzo_Tommy_Flanagan'
p4920
I1
sS'Entonces'
p4921
I3
sS'Barkhad_Abdi'
p4922
I1
sS'transformar'
p4923
I1
sS'impresionante'
p4924
I1
sS'unas'
p4925
I5
sS'trabajado'
p4926
I1
sS'premio'
p4927
I5
sS'barco'
p4928
I1
sS'Michael_Beck'
p4929
I1
sS'aplicando'
p4930
I1
sS'm\xc3\xadtico'
p4931
I1
sS'los'
p4932
I271
sS'tacto'
p4933
I1
sS'todav\xc3\xada'
p4934
I3
sS'complacientes'
p4935
I1
sS'l\xc3\xadnea'
p4936
I1
sS'sabemos'
p4937
I3
sS'crec\xc3\xadan'
p4938
I1
sS'tiernos'
p4939
I1
sS'idea'
p4940
I6
sS'sirve'
p4941
I2
sS'responde'
p4942
I5
sS'aprendan'
p4943
I1
sS'sirva'
p4944
I1
sS'escogiera'
p4945
I1
sS'McGregor'
p4946
I1
sS'domingo'
p4947
I1
sS'relinchido'
p4948
I1
sS'clama'
p4949
I1
sS'comics'
p4950
I3
sS'ancianas'
p4951
I1
sS'churro'
p4952
I1
sS'siguientes'
p4953
I1
sS'Mounstruo_Freddy'
p4954
I1
sS'mexicanas'
p4955
I1
sS'1209'
p4956
I1
sS'describe'
p4957
I1
sS'relevante'
p4958
I1
sS'salen'
p4959
I1
sS'tengo'
p4960
I4
sS'Esa'
p4961
I1
sS'Eso'
p4962
I4
sS'mover'
p4963
I3
sS'Aaron_Eckhart'
p4964
I1
sS'tenga'
p4965
I3
sS'devastado'
p4966
I1
sS'piensen'
p4967
I1
sS'John_Hawkes'
p4968
I1
sS'artificiales'
p4969
I1
sS'4.0'
p4970
I1
sS'ocurri\xc3\xb3'
p4971
I3
sS'anfitriona'
p4972
I1
sS'McQueen'
p4973
I1
sS'\xc3\xb1o\xc3\xb1o'
p4974
I1
sS'declarar'
p4975
I1
sS'dem\xc3\xa1s'
p4976
I2
sS'5'
p4977
I5
sS'so\xc3\xb1ador'
p4978
I1
sS'con_tal_de'
p4979
I1
sS'intrafamiliar'
p4980
I1
sS'you'
p4981
I1
sS'Las'
p4982
I5
sS'Fernanda'
p4983
I1
sS'Entre'
p4984
I1
sS'60s'
p4985
I2
sS'spoilers'
p4986
I1
sS'Anna_Fontaine'
p4987
I1
sS'Vincent_Macaigne'
p4988
I1
sS'adecuaron'
p4989
I1
sS'cuerpo'
p4990
I1
sS'emular'
p4991
I3
sS'duros'
p4992
I2
sS'extra\xc3\xaddo'
p4993
I1
sS'una_vez_que'
p4994
I1
sS'mente'
p4995
I2
sS'significa'
p4996
I5
sS'Oscar_M._Rodr\xc3\xadguez'
p4997
I3
sS'bajista'
p4998
I1
sS'V\xc3\xada'
p4999
I1
sS'calle'
p5000
I1
sS'oriental'
p5001
I1
sS'oportunidad'
p5002
I12
sS'famoso'
p5003
I4
sS'famosa'
p5004
I1
sS'invasores'
p5005
I1
sS'fuera_de'
p5006
I4
sS'Fred_Dobbs'
p5007
I3
sS'inteligente'
p5008
I1
sS'entretejiendo'
p5009
I1
sS'Martin_Brest'
p5010
I1
sS'correr'
p5011
I2
sS'peligrosa'
p5012
I1
sS'corren'
p5013
I1
sS'ciudad'
p5014
I6
sS'sue\xc3\xb1o'
p5015
I2
sS'acusa'
p5016
I1
sS'habla'
p5017
I2
sS'rimbombantes'
p5018
I1
sS'verguenza'
p5019
I1
sS'mujeriego'
p5020
I1
sS'bosque'
p5021
I2
sS'Ella'
p5022
I2
sS'armas'
p5023
I3
sS'viejo'
p5024
I2
sS'conecte'
p5025
I1
sS'hablo'
p5026
I1
sS'enfrentamiento'
p5027
I1
sS'semejante'
p5028
I1
sS'Alejandr\xc3\xada'
p5029
I1
sS'icono'
p5030
I2
sS'perspectiva'
p5031
I1
sS'libertad'
p5032
I5
sS'estando'
p5033
I1
sS'Cine'
p5034
I4
sS'comercial'
p5035
I4
sS'desemboc\xc3\xb3'
p5036
I1
sS'bombardeo'
p5037
I1
sS'apto'
p5038
I1
sS'un\xc3\xadan'
p5039
I1
sS'periquito'
p5040
I1
sS'agotados'
p5041
I1
sS'Sale'
p5042
I1
sS'Protagonizada'
p5043
I1
sS'John_C._Reilly'
p5044
I2
sS'Colin_Farrell'
p5045
I2
sS'fan'
p5046
I1
sS'decide'
p5047
I3
sS'sumado'
p5048
I1
sS'equivocar'
p5049
I4
sS'hubo'
p5050
I2
sS'Oscar_Isaac'
p5051
I1
sS'Salt'
p5052
I1
sS'grab\xc3\xb3'
p5053
I1
sS'Vincent_Kartheiser'
p5054
I1
sS'f\xc3\xb3rmula'
p5055
I4
sS'crossovers'
p5056
I1
sS'dirigir'
p5057
I8
sS'vaqueros'
p5058
I2
sS'extra\xc3\xb1\xc3\xadsima'
p5059
I1
sS'lejano'
p5060
I1
sS'cabecera'
p5061
I2
sS'Michael_Pe\xc3\xb1a'
p5062
I1
sS'acero'
p5063
I1
sS'flick'
p5064
I1
sS'metamorfosis'
p5065
I1
sS'viajado'
p5066
I1
sS'corriendo'
p5067
I2
sS'fuego'
p5068
I1
sS'p\xc3\xb3ster'
p5069
I1
sS'montadas'
p5070
I1
sS'intentando'
p5071
I1
sS'atr\xc3\xa1s'
p5072
I1
sS'esfuerzo'
p5073
I4
sS'reino'
p5074
I1
sS'a_el_frente_de'
p5075
I2
sS'aventurera'
p5076
I1
sS'Johnny_Deep'
p5077
I1
sS'rato'
p5078
I4
sS'sementales'
p5079
I1
sS'destruyendo'
p5080
I1
sS'juicio'
p5081
I2
sS'what'
p5082
I1
sS'com\xc3\xban'
p5083
I2
sS'Christian_Duguay'
p5084
I1
sS'ej\xc3\xa9rcito'
p5085
I7
sS'\xc3\xadconos'
p5086
I1
sS'ayudan'
p5087
I1
sS'sus'
p5088
I73
sS'Cuervo'
p5089
I1
sS'contexto'
p5090
I1
sS'pobreza'
p5091
I3
sS'Tengan'
p5092
I1
sS'Lauren_Bacall'
p5093
I1
sS'exceso'
p5094
I1
sS'huida'
p5095
I1
sS'Zoe_Saldana'
p5096
I2
sS'd\xc3\xa9cadas'
p5097
I3
sS'pionero'
p5098
I1
sS'Audrey_Tautou'
p5099
I1
sS'p\xc3\xbablico'
p5100
I10
sS'arena'
p5101
I1
sS'brit\xc3\xa1nico'
p5102
I3
sS'brit\xc3\xa1nica'
p5103
I1
sS'comunidad'
p5104
I1
sS'argumental'
p5105
I4
sS'evitar'
p5106
I2
sS'colores'
p5107
I1
sS'imagina'
p5108
I1
sS'incrementa'
p5109
I1
sS'llevar\xc3\xada'
p5110
I1
sS'pocho'
p5111
I1
sS'alternativas'
p5112
I1
sS'conoci\xc3\xb3'
p5113
I1
sS'Directito'
p5114
I1
sS'elevado'
p5115
I1
sS'peligros'
p5116
I1
sS'deben'
p5117
I6
sS'palabras'
p5118
I1
sS'marginal'
p5119
I1
sS'90_%'
p5120
I1
sS'\xc3\xa9l'
p5121
I6
sS'enojadas'
p5122
I1
sS'Arreglar'
p5123
I1
sS'preparados'
p5124
I1
sS'Tom'
p5125
I2
sS'Monty_Python'
p5126
I1
sS'seduzcan'
p5127
I1
sS'huir'
p5128
I1
sS'allanadas'
p5129
I1
sS've'
p5130
I5
sS'liberadito'
p5131
I1
sS'Columbus'
p5132
I1
sS'Leonardo_Heiblum'
p5133
I1
sS'Thomas_Kretschmann'
p5134
I1
sS'Labyrinth'
p5135
I1
sS'secci\xc3\xb3n'
p5136
I1
sS'provocar'
p5137
I1
sS'estelar'
p5138
I2
sS'relaci\xc3\xb3n'
p5139
I2
sS'charco'
p5140
I1
sS'titulo'
p5141
I1
sS'The_Adjustment_Bureau'
p5142
I1
sS'trabajo'
p5143
I10
sS'f\xc3\xadlmica'
p5144
I10
sS'filos\xc3\xb3ficas'
p5145
I1
sS'trascendido'
p5146
I1
sS'Recuerden'
p5147
I1
sS'documental'
p5148
I11
sS'St'
p5149
I2
sS'Si'
p5150
I17
sS'excusa'
p5151
I2
sS'condiciones'
p5152
I1
sS'Se'
p5153
I60
sS'asistente'
p5154
I1
sS'mesi\xc3\xa1nica'
p5155
I1
sS'valioso'
p5156
I1
sS'debates'
p5157
I1
sS'esperanza'
p5158
I4
sS'chamacos'
p5159
I1
sS'Denis_Villenueve'
p5160
I1
sS'Sargento_Burton_Neil_Brown_Jr.'
p5161
I1
sS'Pat_Morita'
p5162
I2
sS'pagaremos'
p5163
I1
sS'merecida'
p5164
I1
sS'desatar\xc3\xa1'
p5165
I1
sS'quedaron'
p5166
I2
sS'detr\xc3\xa1s_de'
p5167
I3
sS'piezas'
p5168
I2
sS'relatar'
p5169
I2
sS'inicial'
p5170
I3
sS'pone'
p5171
I2
sS'Crucemos'
p5172
I1
sS'5.4'
p5173
I1
sS'Festival_de_Cine_de_San_Sebastian'
p5174
I1
sS'suficiente'
p5175
I4
sS'Octavia_Spencer'
p5176
I1
sS'Straigh_Outaa_Compton'
p5177
I1
sS'Festival_Internacional_de_Cine_de_Morelia'
p5178
I1
sS'limosna'
p5179
I1
sS'deje'
p5180
I1
sS'escoltar'
p5181
I1
sS'Adela_Micha'
p5182
I1
sS'cerebrales'
p5183
I1
sS'calma'
p5184
I1
sS'derrames'
p5185
I1
sS'da_pie'
p5186
I1
sS'sit\xc3\xbaa'
p5187
I1
sS'eterno'
p5188
I4
sS'eterna'
p5189
I2
sS'rudo'
p5190
I1
sS'galaxias'
p5191
I1
sS'Chris_Roessner'
p5192
I1
sS'repleto'
p5193
I1
sS'fe'
p5194
I3
sS'lidiar'
p5195
I2
sS'repleta'
p5196
I1
sS'Robb_Cullen'
p5197
I1
sS'mal\xc3\xadsimo'
p5198
I1
sS'a'
p5199
I659
sS'Gromit_Aardman_Animaciones'
p5200
I1
sS'junto_con'
p5201
I6
sS'Snorkels'
p5202
I1
sS'universales'
p5203
I1
sS'estelares'
p5204
I1
sS'convencer'
p5205
I2
sS'dentro'
p5206
I2
sS'Logan'
p5207
I3
sS'cin\xc3\xa9filo'
p5208
I1
sS'ego'
p5209
I4
sS'Es'
p5210
I14
sS'logros'
p5211
I1
sS'hacha'
p5212
I1
sS'cambi\xc3\xb3'
p5213
I1
sS'cin\xc3\xa9fila'
p5214
I1
sS'culto'
p5215
I2
sS'Lee_Unkrich'
p5216
I1
sS'gaste'
p5217
I1
sS'Vera_Farmiga'
p5218
I1
sS'irracionalidad'
p5219
I1
sS'innumerables'
p5220
I3
sS'hubiera'
p5221
I6
sS'Diaz'
p5222
I1
sS'ponga'
p5223
I4
sS'soldados'
p5224
I3
sS'suicidio'
p5225
I1
sS'crecen'
p5226
I1
sS'Ryan_Gosling'
p5227
I4
sS'hab\xc3\xadan'
p5228
I3
sS'lobos'
p5229
I1
sS'sensacional'
p5230
I1
sS'charlas'
p5231
I1
sS'extenso'
p5232
I2
sS'estudios'
p5233
I2
sS'vulgaridad'
p5234
I1
sS'defecto'
p5235
I1
sS'alter'
p5236
I5
sS'fines'
p5237
I1
sS'castillo'
p5238
I1
sS'consecuencia'
p5239
I1
sS'Alex_Pettyfer'
p5240
I1
sS'extiende'
p5241
I1
sS'Tampico'
p5242
I1
sS'ya'
p5243
I60
sS'Ganadora_de_el_Festival_Sitges'
p5244
I1
sS'espionaje'
p5245
I4
sS'salieron'
p5246
I2
sS'vegetarianos'
p5247
I1
sS'aclarar'
p5248
I1
sS'pensar'
p5249
I6
sS'fallida'
p5250
I1
sS'gotas'
p5251
I1
sS'ausencia'
p5252
I5
sS'kil\xc3\xb3metros'
p5253
I1
sS'Don_Nadie'
p5254
I1
sS'acogido'
p5255
I1
sS'reaparecer\xc3\xa1'
p5256
I1
sS'humanizado'
p5257
I1
sS'ayudaron'
p5258
I1
sS'm\xc3\xa1s'
p5259
I93
sS'Raw'
p5260
I2
sS'Pattinson'
p5261
I1
sS'pidiendo'
p5262
I2
sS'trailer'
p5263
I13
sS'A\xc3\xban'
p5264
I3
sS'Muy'
p5265
I3
sS'nosotros'
p5266
I6
sS'toda'
p5267
I17
sS'Joe_Walsh'
p5268
I1
sS'todo'
p5269
I52
sS'puritita'
p5270
I2
sS'Door'
p5271
I1
sS'alcohol'
p5272
I1
sS'despiadado'
p5273
I2
sS'acostumbrado'
p5274
I1
sS'tenido'
p5275
I2
sS'engendro'
p5276
I1
sS'Guy_Ritchie'
p5277
I1
sS'tremendo'
p5278
I1
sS'7'
p5279
I1
sS'rostro'
p5280
I2
sS'tremenda'
p5281
I1
sS'conservadores'
p5282
I3
sS'Mercadotecnia'
p5283
I1
sS'Alejandro_Amen\xc3\xa1bar'
p5284
I1
sS'papeles'
p5285
I2
sS'Marco_Ort\xc3\xadz_Gil'
p5286
I1
sS'honestos'
p5287
I1
sS'montaje'
p5288
I1
sS'sutilmente'
p5289
I1
sS'Ben_Pugh'
p5290
I1
sS'eliminado'
p5291
I1
sS'invierto'
p5292
I1
sS'pasada'
p5293
I6
sS'base'
p5294
I1
sS'Christopher_Plummer'
p5295
I2
sS'obra'
p5296
I4
sS'asi'
p5297
I2
sS'pasado'
p5298
I14
sS'libros'
p5299
I3
sS'Bazil'
p5300
I2
sS'Hasta'
p5301
I4
sS'novatos'
p5302
I2
sS'descuidado'
p5303
I1
sS'ineptitud'
p5304
I1
sS'terrible'
p5305
I1
sS'Bros'
p5306
I1
sS'Simone'
p5307
I2
sS'v\xc3\xa1stago'
p5308
I2
sS'Dirigida'
p5309
I3
sS'deja'
p5310
I5
sS'universidad'
p5311
I1
sS'Caribeen'
p5312
I1
sS'Hidalgo'
p5313
I4
sS'vuelve'
p5314
I8
sS'heroicas'
p5315
I1
sS'relato'
p5316
I9
sS'propiedad'
p5317
I2
sS'pudieron'
p5318
I1
sS'promedio'
p5319
I2
sS'Hugo'
p5320
I1
sS'relata'
p5321
I3
sS'E.T.'
p5322
I1
sS'Tom_Hanks'
p5323
I1
sS'par\xc3\xb3'
p5324
I1
sS'duplas'
p5325
I1
sS'pasos'
p5326
I1
sS'villa'
p5327
I1
sS'acompa\xc3\xb1an'
p5328
I1
sS'pensiones'
p5329
I1
sS'cosa'
p5330
I5
sS'divertida'
p5331
I1
sS'valiendo'
p5332
I2
sS'pagar'
p5333
I5
sS'patada'
p5334
I1
sS'callejero'
p5335
I1
sS'Larry'
p5336
I1
sS'conflictos'
p5337
I1
sS'someti\xc3\xb3'
p5338
I1
sS'molesto'
p5339
I1
sS'guarder\xc3\xada'
p5340
I1
sS'acompa\xc3\xb1ar'
p5341
I2
sS'efectos'
p5342
I2
sS'Sol_Yurick'
p5343
I1
sS'tregua'
p5344
I1
sS'tomaron'
p5345
I1
sS'Ganadora'
p5346
I1
sS'As\xc3\xad'
p5347
I6
sS'Paul_Walker'
p5348
I1
sS'fotograf\xc3\xada'
p5349
I10
sS'1912'
p5350
I1
sS'Lasseter'
p5351
I1
sS'reconocer'
p5352
I3
sS'situada'
p5353
I1
sS'profundidad'
p5354
I1
sS'formar_parte'
p5355
I2
sS'Fassbender'
p5356
I1
sS'querr\xc3\xa1'
p5357
I1
sS'Danny_Trejo'
p5358
I1
sS'v\xc3\xadctima'
p5359
I3
sS'Gladiator'
p5360
I1
sS'inc\xc3\xb3modo'
p5361
I1
sS'permanecido'
p5362
I2
sS'comienza'
p5363
I1
sS'cabello'
p5364
I2
sS'ya_que'
p5365
I26
sS'Presentado'
p5366
I1
sS'Father'
p5367
I1
sS'inc\xc3\xb3moda'
p5368
I2
sS'Patrick_Swayze'
p5369
I1
sS'sorda'
p5370
I1
sS'Megan_Fox'
p5371
I2
sS'nula'
p5372
I2
sS'importa'
p5373
I4
sS'futurista'
p5374
I1
sS'dijera'
p5375
I1
sS'dos_horas'
p5376
I1
sS'Predator'
p5377
I2
sS'parece'
p5378
I16
sS'nuestras'
p5379
I1
sS'Nip'
p5380
I1
sS'Maravilloso'
p5381
I1
sS'The_Man'
p5382
I2
sS'nivel'
p5383
I5
sS'Cameron_D\xc3\xadaz'
p5384
I2
sS'gnomos'
p5385
I1
sS'hombres'
p5386
I3
sS'copia'
p5387
I5
sS'pertenece'
p5388
I2
sS'fresco'
p5389
I1
sS'Phillippe'
p5390
I1
sS'bufonescas'
p5391
I1
sS'aires'
p5392
I1
sS'Sitges'
p5393
I1
sS'The'
p5394
I1
sS'ser\xc3\xa1n'
p5395
I3
sS'encargado'
p5396
I2
sS'Dirty_Dancing'
p5397
I1
sS'Total'
p5398
I1
sS'Liam_Neeson'
p5399
I1
sS'reparto'
p5400
I38
sS'Michael_Bay'
p5401
I1
sS'complejos'
p5402
I1
sS'Animal_Vertical'
p5403
I1
sS'juventud'
p5404
I1
sS'Francia'
p5405
I2
sS'favorable'
p5406
I1
sS'enamorar'
p5407
I1
sS'imprescindible'
p5408
I2
sS'pol\xc3\xa9mica'
p5409
I3
sS'Omar_Chaparro'
p5410
I2
sS'Julia_Roberts'
p5411
I3
sS'tener'
p5412
I10
sS'costumbre'
p5413
I1
sS'Realmente'
p5414
I1
sS'sacaron'
p5415
I1
sS'payasadas'
p5416
I2
sS'publicada'
p5417
I2
sS'entiende'
p5418
I1
sS'confundido'
p5419
I1
sS'referencia'
p5420
I1
sS'efectista'
p5421
I1
sS'Melfi'
p5422
I2
sS'Gore_Verbinski'
p5423
I1
sS'busc\xc3\xb3'
p5424
I1
sS'paranoia'
p5425
I1
sS'jugar'
p5426
I1
sS'muchachitos'
p5427
I2
sS'Que'
p5428
I19
sS'valga'
p5429
I1
sS'porque'
p5430
I6
sS'identificar'
p5431
I1
sS'hit'
p5432
I1
sS'desmedida'
p5433
I1
sS'sensible'
p5434
I1
sS'bolsillos'
p5435
I1
sS'agravando'
p5436
I1
sS'reconfirmada'
p5437
I1
sS'salido'
p5438
I1
sS'allegado'
p5439
I1
sS'sobreviviente'
p5440
I1
sS'aburrimiento'
p5441
I1
sS'Los_Vengadores'
p5442
I1
sS'George_Burns'
p5443
I1
sS'tradicionalista'
p5444
I1
sS'patria'
p5445
I2
sS'Daniel_Br\xc3\xbchl'
p5446
I1
sS'reinado'
p5447
I1
sS'perrototes'
p5448
I1
sS'in\xc3\xbatiles'
p5449
I1
sS'Me'
p5450
I2
sS'religiosa'
p5451
I2
sS'Sex_Bob-Omb'
p5452
I1
sS'principal'
p5453
I5
sS'audiencia'
p5454
I5
sS'YA_NO_ES_CHISTOSO'
p5455
I1
sS'convierte'
p5456
I2
sS'a\xc3\xb1o_401'
p5457
I1
sS'cultura'
p5458
I2
sS'convierta'
p5459
I1
sS'Pilgrimage'
p5460
I1
sS'quer\xc3\xada'
p5461
I3
sS'inviertan'
p5462
I1
sS'veganos'
p5463
I1
sS'par\xc3\xb3dico'
p5464
I1
sS'chiitas'
p5465
I1
sS'Gracias_a'
p5466
I2
sS'probable'
p5467
I1
sS'Para'
p5468
I12
sS'caus\xc3\xb3'
p5469
I3
sS'soberbiamente'
p5470
I1
sS'deleitara'
p5471
I1
sS'juego'
p5472
I1
sS'Cate_Blanchet'
p5473
I1
sS'panor\xc3\xa1micos'
p5474
I1
sS'Seg\xc3\xban'
p5475
I3
sS'quitan'
p5476
I1
sS'abandon\xc3\xb3'
p5477
I1
sS'solo'
p5478
I38
sS'Harrelson'
p5479
I2
sS'mat\xc3\xb3'
p5480
I1
sS'proyectar'
p5481
I2
sS'Isla_Fisher'
p5482
I1
sS'parecen'
p5483
I2
sS'recubrimiento'
p5484
I1
sS'Egerton'
p5485
I1
sS'consigui\xc3\xb3'
p5486
I1
sS'opongo'
p5487
I1
sS'parecer'
p5488
I7
sS'oponga'
p5489
I1
sS'hollywoodense'
p5490
I1
sS'volando'
p5491
I1
sS'nominaciones'
p5492
I6
sS'salga'
p5493
I1
sS'bota'
p5494
I1
sS'derrame'
p5495
I1
sS'asunto'
p5496
I2
sS'viles'
p5497
I1
sS'operas'
p5498
I1
sS'anunciaba'
p5499
I1
sS'secreto'
p5500
I3
sS'Sherlock'
p5501
I1
sS'consideran'
p5502
I1
sS'Star_Wars'
p5503
I1
sS'secreta'
p5504
I1
sS'as\xc3\xad_como'
p5505
I6
sS'Michael_Fassbender'
p5506
I1
sS'a\xc3\xban_cuando'
p5507
I1
sS'cierto'
p5508
I5
sS'jefe'
p5509
I2
sS'Voraz'
p5510
I1
sS'Richard_Armitage'
p5511
I1
sS'Kelly_Asbury'
p5512
I1
sS'cinematograf\xc3\xada'
p5513
I1
sS'desperdiciada'
p5514
I1
sS'competici\xc3\xb3n'
p5515
I1
sS'K._Dick'
p5516
I1
sS'caba\xc3\xb1a'
p5517
I2
sS'Jason_Bourne'
p5518
I1
sS'rodajes'
p5519
I1
sS'Victoria'
p5520
I1
sS'Willie'
p5521
I1
sS'Katherine_Waterstone'
p5522
I1
sS'F._Gary_Gray'
p5523
I1
sS'cansando'
p5524
I1
sS'James_Gunn'
p5525
I1
sS'conmovedores'
p5526
I1
sS'chick'
p5527
I1
sS'Daniel_Jim\xc3\xa9nez_Cacho'
p5528
I1
sS'corri\xc3\xb3'
p5529
I1
sS'Ajax'
p5530
I2
sS'brillan'
p5531
I1
sS'personales'
p5532
I1
sS'guitarra'
p5533
I1
sS'militar'
p5534
I2
sS'simpat\xc3\xada'
p5535
I1
sS'experimentados'
p5536
I1
sS'frontera'
p5537
I1
sS'clandestinamente'
p5538
I1
sS'lleve_a_cabo'
p5539
I1
sS'pronostica'
p5540
I1
sS'sufrir'
p5541
I1
sS'abajo'
p5542
I2
sS'Robert_Rodr\xc3\xadguez'
p5543
I1
sS'Entretenimiento'
p5544
I1
sS'Academia'
p5545
I7
sS'destruida'
p5546
I1
sS'percepci\xc3\xb3n'
p5547
I1
sS'notables'
p5548
I1
sS'disc\xc3\xadpulos'
p5549
I1
sS'cantar'
p5550
I1
sS'fant\xc3\xa1stica'
p5551
I2
sS'andanzas'
p5552
I1
sS'representante'
p5553
I1
sS'look'
p5554
I1
sS'descubierto'
p5555
I1
sS'Clavar'
p5556
I1
sS'Eran_Creevy'
p5557
I1
sS'hablado'
p5558
I2
sS'planta'
p5559
I1
sS'dir\xc3\xada'
p5560
I1
sS'destrucci\xc3\xb3n'
p5561
I2
sS'acuerda'
p5562
I1
sS'acuerdo'
p5563
I7
sS'Alex'
p5564
I2
sS'Ben_Foster'
p5565
I3
sS'abierto'
p5566
I2
sS'City'
p5567
I2
sS'Antes_de'
p5568
I1
sS'Middlesex'
p5569
I1
sS'impresiona'
p5570
I1
sS'lleno'
p5571
I2
sS'sobrecogedor'
p5572
I1
sS'James_McAvoy'
p5573
I1
sS'alta'
p5574
I4
sS'Director_Argentino'
p5575
I1
sS'Creador'
p5576
I1
sS'deb\xc3\xada'
p5577
I1
sS'Elle_Fanning'
p5578
I2
sS'reparaci\xc3\xb3n'
p5579
I2
sS'estren\xc3\xb3'
p5580
I2
sS'Michelle_Williams'
p5581
I2
sS'fueron'
p5582
I4
sS'9'
p5583
I3
sS'provocada'
p5584
I1
sS'Marcus_Nispel'
p5585
I1
sS'Ariadne'
p5586
I1
sS'vemos'
p5587
I1
sS'revivir'
p5588
I1
sS'literatura'
p5589
I2
sS'impresionantes'
p5590
I1
sS'sesanci\xc3\xb3n'
p5591
I1
sS'simplona'
p5592
I1
sS'poner'
p5593
I9
sS'007'
p5594
I3
sS'apenas'
p5595
I7
sS'chequen'
p5596
I1
sS'Jolie'
p5597
I4
sS'apreciar'
p5598
I14
sS'Con'
p5599
I15
sS'haga'
p5600
I4
sS'cagadas'
p5601
I1
sS'quejar'
p5602
I1
sS'izquierda'
p5603
I1
sS'cuestionamientos'
p5604
I1
sS'S._Darko'
p5605
I1
sS'Girl'
p5606
I1
sS'Barry_De_Vorzon'
p5607
I1
sS'Innocentes'
p5608
I1
sS'repartidora'
p5609
I1
sS'ganando'
p5610
I1
sS'publicitario'
p5611
I1
sS'zambullir'
p5612
I1
sS'Greengrass'
p5613
I1
sS'Madre'
p5614
I1
sS'camale\xc3\xb3nicos'
p5615
I1
sS'Tobey'
p5616
I1
sS'inocente'
p5617
I1
sS'desconocen'
p5618
I1
sS'Tienen'
p5619
I1
sS'anunciado'
p5620
I1
sS'soluci\xc3\xb3n'
p5621
I1
sS'porqueria'
p5622
I1
sS'Arranca'
p5623
I1
sS'Venice_Beach'
p5624
I1
sS'Water'
p5625
I1
sS'sistemas'
p5626
I1
sS'mujer'
p5627
I5
sS'desarrollo'
p5628
I3
sS'transmitido'
p5629
I1
sS'marca'
p5630
I1
sS'representativos'
p5631
I1
sS'enfermedades'
p5632
I1
sS'volver'
p5633
I4
sS'ex-agente'
p5634
I1
sS'gama'
p5635
I1
sS'tramos'
p5636
I1
sS'Agata_Buzek'
p5637
I1
sS'comandando'
p5638
I1
sS'v\xc3\xadctimas'
p5639
I3
sS'Cine_Mexicano'
p5640
I2
sS'Apta'
p5641
I19
sS'Ralph_Macchio'
p5642
I2
sS'convertir'
p5643
I6
sS'Animaci\xc3\xb3n'
p5644
I1
sS'cuesti\xc3\xb3n'
p5645
I4
sS'adaptaciones'
p5646
I4
sS'precuelas'
p5647
I1
sS'ponen'
p5648
I1
sS'actualmente'
p5649
I1
sS'sketch'
p5650
I1
sS'tambi\xc3\xa9n'
p5651
I31
sS'semana'
p5652
I2
sS'urbe'
p5653
I1
sS'Karyn_Kusama'
p5654
I1
sS'extensi\xc3\xb3n'
p5655
I1
sS'Ahhh'
p5656
I3
sS'gracia'
p5657
I2
sS'territorios'
p5658
I1
sS'Lost_Children'
p5659
I1
sS'descarga'
p5660
I1
sS'palomero'
p5661
I2
sS'chicos'
p5662
I2
sS'castigaron'
p5663
I1
sS'gratuita'
p5664
I1
sS'tardar\xc3\xa1'
p5665
I1
sS'andabas'
p5666
I1
sS'actualizaci\xc3\xb3n'
p5667
I1
sS'extraterrestres'
p5668
I2
sS'afortunadamente'
p5669
I1
sS'consentidos'
p5670
I2
sS'Mejor_Actriz'
p5671
I1
sS'Acompa\xc3\xb1an'
p5672
I1
sS'leones'
p5673
I4
sS'zombis'
p5674
I1
sS'tuvo'
p5675
I8
sS'actuaciones'
p5676
I9
sS'nuevo'
p5677
I36
sS'Timothy_Olyphant'
p5678
I2
sS'transmitir'
p5679
I1
sS'puras'
p5680
I2
sS'derbezombies'
p5681
I1
sS'tocar'
p5682
I3
sS'nueva'
p5683
I19
sS'Luc\xc3\xada'
p5684
I1
sS'plazo'
p5685
I1
sS'Imperio_de_el_Rat\xc3\xb3n'
p5686
I1
sS'Avatar'
p5687
I7
sS'desprotegida'
p5688
I1
sS'Invierno_Profundo'
p5689
I1
sS'Segunda'
p5690
I2
sS'humor\xc3\xadstico'
p5691
I1
sS'Bedroom'
p5692
I1
sS'trata'
p5693
I3
sS'avisan'
p5694
I1
sS'Extraordinario'
p5695
I1
sS'se\xc3\xb1ora'
p5696
I1
sS'pero'
p5697
I72
sS'gastar'
p5698
I2
sS'Ela'
p5699
I1
sS'Sam_Peckinpah'
p5700
I1
sS'mayor\xc3\xada'
p5701
I2
sS'lentes'
p5702
I3
sS'primeras'
p5703
I3
sS'mamarrachadas'
p5704
I3
sS'esc\xc3\xa1ndalo'
p5705
I1
sS'forzada'
p5706
I2
sS'leyenda'
p5707
I2
sS'metiendo'
p5708
I2
sS'cr\xc3\xa9dito'
p5709
I1
sS'pocos'
p5710
I1
sS'di\xc3\xa1logos'
p5711
I4
sS'Portman'
p5712
I1
sS'vivir'
p5713
I4
sS'facultad'
p5714
I1
sS'signific\xc3\xb3'
p5715
I1
sS'prisiones'
p5716
I1
sS'preparatoria'
p5717
I1
sS'inundar'
p5718
I1
sS'cre\xc3\xadble'
p5719
I2
sS'manufactura'
p5720
I1
sS'Jeffery_Dean_Morgan'
p5721
I1
sS'escorpi\xc3\xb3n'
p5722
I1
sS'correlaci\xc3\xb3n'
p5723
I1
sS'multiplicado'
p5724
I1
sS'limpio'
p5725
I1
sS'abusando'
p5726
I1
sS'The_Happening'
p5727
I1
sS'Robin_Wright'
p5728
I1
sS'calles'
p5729
I1
sS'ca\xc3\xaddo'
p5730
I1
sS'trajecitos'
p5731
I1
sS'limpia'
p5732
I1
sS'respuestas'
p5733
I1
sS'cuarta'
p5734
I7
sS'comporta'
p5735
I1
sS'inmundicias'
p5736
I1
sS'Mejor_Actor'
p5737
I1
sS'\xc3\xb1a\xc3\xb1ita'
p5738
I1
sS'similar'
p5739
I2
sS'desfile'
p5740
I1
sS'necesito'
p5741
I1
sS'videojuegos'
p5742
I2
sS'seducci\xc3\xb3n'
p5743
I1
sS'Tv'
p5744
I1
sS'delinear'
p5745
I1
sS'necesita'
p5746
I2
sS'proteger'
p5747
I1
sS'verdaderos'
p5748
I7
sS'organizaciones'
p5749
I1
sS'Gracias_Twilight'
p5750
I1
sS'actores'
p5751
I18
sS'adulto'
p5752
I3
sS'asesinatos'
p5753
I1
sS'competencia'
p5754
I2
sS're\xc3\xadr'
p5755
I1
sS'comprende'
p5756
I1
sS'calmante'
p5757
I1
sS'TV'
p5758
I1
sS'chiquitines'
p5759
I1
sS'Curiosos'
p5760
I1
sS'Curtiz'
p5761
I1
sS'cuenta'
p5762
I13
sS'iguale'
p5763
I1
sS'The_Social_Network'
p5764
I1
sS'mecanizado'
p5765
I1
sS'recordar'
p5766
I4
sS'Curtin'
p5767
I2
sS'esplendida'
p5768
I1
sS'modisto'
p5769
I1
sS'justamente'
p5770
I1
sS'curriculum'
p5771
I1
sS'noche'
p5772
I1
sS'imposible'
p5773
I2
sS'distribuidora'
p5774
I1
sS'Dorff'
p5775
I1
sS'cre\xc3\xada'
p5776
I1
sS'protagonizar'
p5777
I2
sS'Leonardo_DiCaprio'
p5778
I1
sS'dur\xc3\xb3'
p5779
I1
sS'protagonizan'
p5780
I3
sS'pasajera'
p5781
I1
sS'conocidos'
p5782
I2
sS'a\xc3\xb1o'
p5783
I15
sS'acaso'
p5784
I2
sS'Depredadores'
p5785
I1
sS'bodrios'
p5786
I3
sS'problema'
p5787
I4
sS'Sylvia_Hoeks'
p5788
I1
sS'Festival_de_Sundance'
p5789
I1
sS'e'
p5790
I28
sS'preferido'
p5791
I4
sS'sobrepasan'
p5792
I1
sS'Pues_bien'
p5793
I3
sS'muchos'
p5794
I18
sS'youtube'
p5795
I1
sS'espero'
p5796
I3
sS'Oren_Moverman'
p5797
I1
sS'perfila'
p5798
I1
sS'quedamos'
p5799
I1
sS'narrativa'
p5800
I7
sS'supon\xc3\xada'
p5801
I1
sS'karma'
p5802
I1
sS'Andr\xc3\xa9s_Palacios'
p5803
I1
sS'Ay'
p5804
I1
sS'porquer\xc3\xadas'
p5805
I4
sS'irrespetuosa'
p5806
I2
sS'narrativo'
p5807
I4
sS'obsesi\xc3\xb3n'
p5808
I1
sS'escogido'
p5809
I1
sS'Revolucion'
p5810
I1
sS'reverenda'
p5811
I1
sS'Phillip_Noyce'
p5812
I1
sS'Debido_a'
p5813
I1
sS'quitar'
p5814
I2
sS'originalidad'
p5815
I2
sS'unen'
p5816
I4
sS'desconfianza'
p5817
I2
sS'merced'
p5818
I1
sS'curiosamente'
p5819
I1
sS'ense\xc3\xb1ar'
p5820
I1
sS'gana'
p5821
I1
sS'saltando'
p5822
I1
sS'desenvolver'
p5823
I1
sS'en_torno_a'
p5824
I1
sS'impulsivos'
p5825
I1
sS'carism\xc3\xa1tico'
p5826
I3
sS'chinos'
p5827
I1
sS'peluqu\xc3\xadn'
p5828
I1
sS'sesi\xc3\xb3n'
p5829
I1
sS'Morgan_Freeman'
p5830
I2
sS'nuestros'
p5831
I3
sS'Erin_Brokovich'
p5832
I1
sS'llamaba'
p5833
I1
sS'Bill_Murray'
p5834
I1
sS'originada'
p5835
I1
sS'David_Bowie'
p5836
I2
sS'grabaci\xc3\xb3n'
p5837
I1
sS'lanzo'
p5838
I1
sS'joyitas'
p5839
I1
sS'Lancelot'
p5840
I1
sS'Semi_Novato_Mike_Mitchell'
p5841
I1
sS'reencontrar'
p5842
I1
sS'agua'
p5843
I3
sS'lanza'
p5844
I1
sS'sinf\xc3\xadn'
p5845
I1
sS'reprendiendo'
p5846
I1
sS'Marie_Antoinette'
p5847
I1
sS'Remake'
p5848
I2
sS'Jacobo_Lieberman'
p5849
I1
sS'seguir\xc3\xa1'
p5850
I2
sS'aldea'
p5851
I1
sS'exhibici\xc3\xb3n'
p5852
I2
sS'disfrutable'
p5853
I5
sS'ejemplos'
p5854
I1
sS'femenina'
p5855
I2
sS'calenturas'
p5856
I1
sS'miras'
p5857
I1
sS'brilloso'
p5858
I2
sS'frente_a'
p5859
I2
sS'Expediente'
p5860
I5
sS'Peckinpah'
p5861
I1
sS'pedotes'
p5862
I1
sS'viajecito'
p5863
I1
sS'Hill'
p5864
I1
sS'sab\xc3\xada'
p5865
I1
sS'latente'
p5866
I1
sS'teasers'
p5867
I1
sS'Lady'
p5868
I1
sS'cuento'
p5869
I2
sS'Carlos_Loreth'
p5870
I1
sS'ofensiva'
p5871
I1
sS'necesarias'
p5872
I2
sS'Sucedi\xc3\xb3'
p5873
I1
sS'fan\xc3\xa1ticos'
p5874
I3
sS'rescate'
p5875
I1
sS'Derek_Cianfrance'
p5876
I1
sS'emergente'
p5877
I1
sS'conspiraciones'
p5878
I1
sS'contacto'
p5879
I1
sS'A\xc3\xban_as\xc3\xad'
p5880
I1
sS'vampiro'
p5881
I3
sS'valer'
p5882
I1
sS'Laurence_Olivier'
p5883
I1
sS'valen'
p5884
I1
sS'playa'
p5885
I1
sS'capital'
p5886
I2
sS'recuperar'
p5887
I3
sS';'
p5888
I21
sS'notorio'
p5889
I1
sS'piensan'
p5890
I2
sS'incursiones'
p5891
I1
sS'inservibles'
p5892
I1
sS'pr\xc3\xb3ximo_23_de_abril'
p5893
I1
sS'2_horas'
p5894
I3
sS'liderados'
p5895
I1
sS'Polanski'
p5896
I1
sS'diamantes'
p5897
I1
sS'estelariza'
p5898
I1
sS'siguen'
p5899
I1
sS'pre-establecido'
p5900
I1
sS'sexy'
p5901
I1
sS'Deplorable'
p5902
I1
sS'heredero'
p5903
I1
sS'sonara'
p5904
I1
sS'Adem\xc3\xa1s'
p5905
I5
sS'pobrecito'
p5906
I1
sS'metro'
p5907
I1
sS'prodigios'
p5908
I1
sS'producto'
p5909
I9
sS'p\xc3\xa1lido'
p5910
I1
sS'err\xc3\xb3nea'
p5911
I1
sS'clasecitas'
p5912
I1
sS'grandes'
p5913
I5
sS'indiscutible'
p5914
I1
sS'No_Country'
p5915
I2
sS'irreverente'
p5916
I2
sS'all\xc3\xa1'
p5917
I4
sS'Antorcha_Encendida'
p5918
I1
sS'Mathilde_Beaulieu'
p5919
I1
sS'c\xc3\xb3mic'
p5920
I2
sS'claro'
p5921
I3
sS'c\xc3\xa1mara'
p5922
I3
sS'clara'
p5923
I1
sS'creado'
p5924
I2
sS'Harry_Dean_Stanton'
p5925
I1
sS'tuvimos'
p5926
I1
sS'violento'
p5927
I2
sS'cerrando'
p5928
I1
sS'Pixar'
p5929
I5
sS'desaparecido'
p5930
I2
sS'dejar'
p5931
I6
sS'vengador'
p5932
I4
sS'John_Albano'
p5933
I1
sS'barrios'
p5934
I1
sS'usa'
p5935
I1
sS'&'
p5936
I1
sS'pudiera'
p5937
I2
sS'sordo-mudo'
p5938
I1
sS'desaparecida'
p5939
I1
sS'trillada'
p5940
I2
sS'exhaustivo'
p5941
I1
sS'propositivamente'
p5942
I1
sS'agradecemos'
p5943
I1
sS'tibieza'
p5944
I1
sS'aumenta'
p5945
I2
sS'simples'
p5946
I3
sS'intimid\xc3\xb3'
p5947
I1
sS'Prokofiev'
p5948
I1
sS'siguiendo'
p5949
I1
sS'vello'
p5950
I1
sS'estimado'
p5951
I2
sS'victimas'
p5952
I4
sS'Abre_los_Ojos'
p5953
I1
sS'Corran'
p5954
I1
sS'Michale_Hoffman'
p5955
I1
sS'Ara\xc3\xb1a'
p5956
I1
sS'chicho'
p5957
I1
sS'vuelta'
p5958
I2
sS'temida'
p5959
I1
sS'vuelto'
p5960
I3
sS'formado'
p5961
I1
sS'iniciar\xc3\xada'
p5962
I1
sS'golpeando'
p5963
I1
sS'palabra'
p5964
I1
sS'Noyce'
p5965
I2
sS'chiquillo'
p5966
I2
sS'caer\xc3\xa1n'
p5967
I1
sS'influenciar\xc3\xa1'
p5968
I1
sS'chiquilla'
p5969
I1
sS'gancho'
p5970
I1
sS'salas'
p5971
I12
sS'penosa'
p5972
I1
sS'irreparable'
p5973
I1
sS'inesperado'
p5974
I1
sS'inesperada'
p5975
I1
sS'penoso'
p5976
I1
sS'M\xc3\xa9xico'
p5977
I8
sS'alcanzado'
p5978
I1
sS'l\xc3\xb3gicamente'
p5979
I2
sS'control'
p5980
I1
sS'esp\xc3\xadritu'
p5981
I1
sS'cierra'
p5982
I3
sS'cuestionar'
p5983
I1
sS'La_Chica'
p5984
I1
sS'Noah_Ringer'
p5985
I1
sS'sentimientos'
p5986
I2
sS'pozolero'
p5987
I1
sS'carros'
p5988
I2
sS'raro'
p5989
I3
sS'fortalecidos'
p5990
I1
sS'tal'
p5991
I6
sS'expandir'
p5992
I2
sS'acompa\xc3\xb1ada'
p5993
I2
sS'dudan'
p5994
I1
sS'vocabulario'
p5995
I2
sS'esperemos'
p5996
I1
sS'Schwarzenegger'
p5997
I1
sS'querida'
p5998
I2
sS'Logan_Marshal-Green'
p5999
I1
sS'querido'
p6000
I2
sS'andaba'
p6001
I2
sS'casada'
p6002
I2
sS'espiritual'
p6003
I1
sS'garant\xc3\xada'
p6004
I1
sS'quedando'
p6005
I1
sS'Bruno_Traven'
p6006
I1
sS'cual'
p6007
I48
sS'gritos'
p6008
I1
sS'escoger'
p6009
I2
sS'sin'
p6010
I38
sS'Ghost'
p6011
I1
sS'aguantan'
p6012
I1
sS'Hijo_de_la_Novia'
p6013
I1
sS'rodeado'
p6014
I1
sS'enjaretaron'
p6015
I1
sS'\xc3\xbaltimos'
p6016
I6
sS'repetidos'
p6017
I1
sS'novelas'
p6018
I1
sS'Roman'
p6019
I1
sS'otorgar'
p6020
I1
sS'mont\xc3\xb3n'
p6021
I2
sS'Shrek'
p6022
I3
sS'aguantar'
p6023
I1
sS'Cu\xc3\xa1nto'
p6024
I1
sS'Cazador_de_Jud\xc3\xados'
p6025
I1
sS'doquier'
p6026
I1
sS'Cabe'
p6027
I1
sS'batas'
p6028
I1
sS'tiempito'
p6029
I1
sS'Los_\xc3\x81ngeles'
p6030
I1
sS'sincronizada'
p6031
I1
sS'avances'
p6032
I2
sS'monta\xc3\xb1as'
p6033
I1
sS'legendarios'
p6034
I1
sS'mordidas'
p6035
I1
sS'Jim_Cunningham'
p6036
I1
sS'julio_de_2001'
p6037
I1
sS'Smith'
p6038
I1
sS'en_compa\xc3\xb1\xc3\xada_de'
p6039
I1
sS'Kristen_Bell'
p6040
I2
sS'retoma'
p6041
I1
sS'lados'
p6042
I1
sS'Body'
p6043
I1
sS'a\xc3\xban'
p6044
I5
sS'Lindelof'
p6045
I1
sS'categor\xc3\xadas'
p6046
I4
sS'm\xc3\xa1s_all\xc3\xa1_de'
p6047
I3
sS'Prometheus'
p6048
I4
sS'convoca'
p6049
I1
sS'tratamiento'
p6050
I1
sS'madre'
p6051
I3
sS'extendida'
p6052
I1
sS'Waterfront'
p6053
I1
sS'Esta'
p6054
I19
sS'Andy_Diggle'
p6055
I1
sS'Johnny_Depp'
p6056
I3
sS'practico'
p6057
I1
sS'auto'
p6058
I1
sS'sarta'
p6059
I2
sS'material'
p6060
I1
sS'The_Expendables'
p6061
I1
sS'camino'
p6062
I9
sS'animaci\xc3\xb3n'
p6063
I6
sS'practica'
p6064
I1
sS'antes_de'
p6065
I5
sS'actorcitos'
p6066
I1
sS'brindar'
p6067
I1
sS'decenas'
p6068
I1
sS'dispuesto'
p6069
I1
sS'encabezados'
p6070
I1
sS'desastre'
p6071
I1
sS'trae'
p6072
I9
sS'Parece'
p6073
I3
sS'Jedi_Ewan_McGregor'
p6074
I1
sS'puro'
p6075
I3
sS'cosech\xc3\xb3'
p6076
I1
sS'moda'
p6077
I7
sS'diciendo'
p6078
I3
sS'tras'
p6079
I11
sS'ponemos'
p6080
I2
sS'todavia'
p6081
I1
sS'segund\xc3\xb3n'
p6082
I3
sS'Stuart_Hazeldine'
p6083
I1
sS'modo'
p6084
I1
sS'intenci\xc3\xb3n'
p6085
I2
sS'ultimas'
p6086
I1
sS'Fuente_de_la_Vida'
p6087
I1
sS'mero'
p6088
I2
sS'Alan_Ladd'
p6089
I1
sS'Next'
p6090
I1
sS'informa'
p6091
I1
sS'joyita'
p6092
I2
sS'pregunt\xc3\xb3'
p6093
I1
sS'voluntad'
p6094
I1
sS'80'
p6095
I3
sS'apoyo'
p6096
I1
sS'val\xc3\xada'
p6097
I1
sS'recomendable'
p6098
I1
sS'85'
p6099
I1
sS'oprimidas'
p6100
I1
sS'termina'
p6101
I1
sS'fugado'
p6102
I1
sS'embaucador'
p6103
I1
sS'reboot'
p6104
I1
sS'atiborren'
p6105
I1
sS'trabajadoras'
p6106
I1
sS'cr\xc3\xadtica'
p6107
I16
sS'Juan_Jose_Campanella'
p6108
I1
sS'Grave'
p6109
I1
sS'legado'
p6110
I1
sS'conflicto'
p6111
I3
sS'mareo'
p6112
I1
sS'Cavill'
p6113
I1
sS'eco'
p6114
I1
sS'tercera'
p6115
I10
sS'marea'
p6116
I2
sS'serie'
p6117
I18
sS'desistan'
p6118
I1
sS'Rigoberto_Perezcano'
p6119
I1
sS'lectores'
p6120
I1
sS'mares'
p6121
I1
sS'palomiteros'
p6122
I1
sS'certero'
p6123
I1
sS'morbo'
p6124
I3
sS'Gone'
p6125
I1
sS'rockeras'
p6126
I1
sS'protagonista'
p6127
I6
sS'resumen'
p6128
I1
sS'desnudo'
p6129
I1
sS'Henry_Cavill'
p6130
I2
sS'protag\xc3\xb3nicos'
p6131
I1
sS'semanal'
p6132
I1
sS'S\xc3\xadndrome_de_Ed_Wood'
p6133
I1
sS'Pr\xc3\xb3xima'
p6134
I1
sS'\xc3\xb3rgano'
p6135
I1
sS'Asesinos_Cibern\xc3\xa9ticos'
p6136
I1
sS'Stranger_Than_Fiction'
p6137
I1
sS'platicaditas'
p6138
I1
sS'C\xc3\xa9sar_Hern\xc3\xa1ndez'
p6139
I1
sS'Fett'
p6140
I61
sS'ri\xc3\xb1a'
p6141
I1
sS'hombre'
p6142
I7
sS'demandas'
p6143
I1
sS'instalar'
p6144
I1
sS'quincena'
p6145
I1
sS'verg\xc3\xbcenza'
p6146
I2
sS'b\xc3\xbaho'
p6147
I1
sS'calenturientos'
p6148
I1
sS'dirigidos'
p6149
I1
sS'David_Beckham'
p6150
I1
sS'Shane'
p6151
I3
sS'estilo'
p6152
I11
sS'Being_John_Malkovich'
p6153
I1
sS'drogas'
p6154
I1
sS'estemos'
p6155
I1
sS'casting'
p6156
I3
sS'predecir'
p6157
I1
sS'esperar\xc3\xada'
p6158
I1
sS'capaz'
p6159
I1
sS'bufonesca'
p6160
I1
sS'Pierre_Niney'
p6161
I1
sS'man'
p6162
I1
sS'final'
p6163
I6
sS'despunte'
p6164
I1
sS'calamidades'
p6165
I1
sS'sonidos'
p6166
I1
sS'Tribeca'
p6167
I1
sS'debate'
p6168
I1
sS'listo'
p6169
I1
sS'basadas'
p6170
I1
sS'promocionales'
p6171
I1
sS'jodidos'
p6172
I1
sS'lista'
p6173
I3
sS'sexuales'
p6174
I1
sS'colar'
p6175
I1
sS'podr\xc3\xadamos'
p6176
I2
sS'muerte'
p6177
I5
sS'Santa_Claus'
p6178
I1
sS'Pierce_Brosnan'
p6179
I2
sS'enviado'
p6180
I2
sS'giraba'
p6181
I1
sS'rarita'
p6182
I1
sS'evasi\xc3\xb3n'
p6183
I1
sS'Cecilia_Su\xc3\xa1rez'
p6184
I1
sS'Richard'
p6185
I2
sS'ni\xc3\xb1o'
p6186
I6
sS'Jonathan_Liebesman'
p6187
I1
sS'ni\xc3\xb1a'
p6188
I1
sS'mencionadas'
p6189
I1
sS'cr\xc3\xa9ditos'
p6190
I2
sS'corona'
p6191
I1
sS'perfilaron'
p6192
I1
sS'independientes'
p6193
I2
sS'Batman'
p6194
I2
sS'Nada'
p6195
I4
sS'Alice_Braga'
p6196
I2
sS'Darth_Bruckheimer'
p6197
I1
sS'peligro'
p6198
I3
sS'doloroso'
p6199
I1
sS'servidor'
p6200
I11
sS'europea'
p6201
I2
sS'alterno'
p6202
I2
sS'nacionalidad'
p6203
I1
sS'visor'
p6204
I1
sS'pubertos'
p6205
I1
sS'posibilidad'
p6206
I2
sS'lugar'
p6207
I9
sS'catolicismo'
p6208
I1
sS'centra'
p6209
I4
sS'arcas'
p6210
I1
sS'clase'
p6211
I1
sS'Titanic'
p6212
I1
sS'explican'
p6213
I1
sS'familia'
p6214
I9
sS'g\xc3\xa9nero'
p6215
I18
sS'duelo'
p6216
I1
sS'horripilante'
p6217
I2
sS'juega'
p6218
I2
sS'casualidad'
p6219
I1
sS'escondidos'
p6220
I2
sS'gr\xc3\xa1fico'
p6221
I1
sS'adaptar'
p6222
I2
sS'Plutarco_Haza'
p6223
I1
sS'malos'
p6224
I4
sS'Por'
p6225
I18
sS'reflejan'
p6226
I1
sS'est\xc3\xa1n'
p6227
I12
sS'ignorado'
p6228
I1
sS'tema'
p6229
I7
sS'fiel'
p6230
I2
sS'fregados'
p6231
I2
sS'Anna_Camp'
p6232
I1
sS'g\xc3\xbcero'
p6233
I2
sS'portare'
p6234
I1
sS'Tara'
p6235
I1
sS'cineastas'
p6236
I3
sS'dije'
p6237
I1
sS'Tomen'
p6238
I1
sS'Mate'
p6239
I1
sS'Stallone'
p6240
I2
sS'Harald_Zwart'
p6241
I1
sS'Poooooorfavor'
p6242
I1
sS'volver\xc3\xa1n'
p6243
I2
sS'matar\xc3\xa1'
p6244
I1
sS'cacho'
p6245
I1
sS'John_McTiernan'
p6246
I1
sS'present\xc3\xb3'
p6247
I1
sS'decadencia'
p6248
I1
sS'sheriff'
p6249
I3
sS'('
p6250
I303
sS'tiro'
p6251
I1
sS'desatar\xc3\xa1n'
p6252
I1
sS'tal_vez'
p6253
I4
sS'Sof\xc3\xada_Coppola'
p6254
I1
sS'bases'
p6255
I1
sS'filmes'
p6256
I1
sS'secuestrado'
p6257
I1
sS'echar'
p6258
I6
sS'intrigante'
p6259
I1
sS'libro'
p6260
I3
sS'regido'
p6261
I1
sS'latinos'
p6262
I1
sS'seis'
p6263
I1
sS'Los_\xc3\x81ngeles_K'
p6264
I1
sS'25_de_Junio'
p6265
I1
sS'dise\xc3\xb1o'
p6266
I1
sS'firmada'
p6267
I2
sS'Pen\xc3\xa9lope_Cruz'
p6268
I1
sS'dejar\xc3\xa9'
p6269
I1
sS'girar'
p6270
I1
sS'iraqu\xc3\xad'
p6271
I1
sS'favoritos'
p6272
I1
sS'conejo'
p6273
I3
sS'porquer\xc3\xada'
p6274
I5
sS'Nikita'
p6275
I1
sS'partir'
p6276
I1
sS'complement\xc3\xb3'
p6277
I1
sS'encantadora'
p6278
I1
sS'gran'
p6279
I12
sS'paridos'
p6280
I2
sS'muestran'
p6281
I1
sS'patos'
p6282
I1
sS'protagonistas'
p6283
I6
sS'con_excepci\xc3\xb3n_de'
p6284
I2
sS'Spider-Man'
p6285
I2
sS'tensi\xc3\xb3n'
p6286
I3
sS'reconfortadas'
p6287
I1
sS'ogro'
p6288
I1
sS'\xc3\xbaltimo'
p6289
I6
sS'Ciudad_de_M\xc3\xa9xico'
p6290
I2
sS'Felicity_Jones'
p6291
I1
sS'Directucho'
p6292
I1
sS'disfrutaremos'
p6293
I1
sS'qu\xc3\xadmica'
p6294
I3
sS'humana'
p6295
I2
sS'contratando'
p6296
I1
sS'supere'
p6297
I2
sS'luz'
p6298
I4
sS'mexicano'
p6299
I12
sS'llamada'
p6300
I5
sS'crudo'
p6301
I4
sS'horrible'
p6302
I2
sS't\xc3\xa9rminos'
p6303
I1
sS'Thomas_P._Cullinan'
p6304
I1
sS'joya'
p6305
I2
sS'cruda'
p6306
I1
sS'escogieran'
p6307
I1
sS'inclusiones'
p6308
I1
sS'llamado'
p6309
I2
sS'exigan'
p6310
I1
sS'Kenner'
p6311
I1
sS'16_de_septiembre'
p6312
I1
sS'Samuel_Bayer'
p6313
I1
sS'ver\xc3\xa1'
p6314
I2
sS'audiovisual'
p6315
I1
sS'erupci\xc3\xb3n'
p6316
I1
sS'Coney_Island'
p6317
I1
sS'Tratando'
p6318
I1
sS'Dwayne_Johnson'
p6319
I2
sS'circunstancia'
p6320
I1
sS'experiencia'
p6321
I8
sS'mago'
p6322
I1
sS'nutrido'
p6323
I1
sS'ronda'
p6324
I1
sS'mariposa'
p6325
I1
sS'\xc2\xbf'
p6326
I84
sS'atrevida'
p6327
I2
sS'asesinos'
p6328
I1
sS'dispuse'
p6329
I1
sS'conocido'
p6330
I4
sS'rese\xc3\xb1a'
p6331
I2
sS'Scott_Pilgrim'
p6332
I1
sS'Daniel_Monz\xc3\xb3n'
p6333
I1
sS'Woody'
p6334
I2
sS'sencillo'
p6335
I1
sS'costura'
p6336
I1
sS'podredumbre'
p6337
I1
sS'decentes'
p6338
I1
sS'traga'
p6339
I2
sS'Norteado'
p6340
I2
sS'contener'
p6341
I1
sS'mimas'
p6342
I1
sS'solucionar'
p6343
I1
sS'Est\xc3\xa1n'
p6344
I1
sS'Los'
p6345
I10
sS'diversi\xc3\xb3n'
p6346
I1
sS'contenidos'
p6347
I2
sS'complejidad'
p6348
I2
sS'Mejor_Pel\xc3\xadcula_Animada'
p6349
I1
sS'lecciones'
p6350
I1
sS'Lee_Strasberg'
p6351
I1
sS'tiene'
p6352
I31
sS'A_Scanner_Darkly'
p6353
I1
sS'pormenores'
p6354
I1
sS'supongo'
p6355
I1
sS'literal'
p6356
I3
sS'faltar'
p6357
I1
sS'violaci\xc3\xb3n'
p6358
I1
sS'The_Genetic_Opera'
p6359
I1
sS'American_Atheists'
p6360
I1
sS'proveer'
p6361
I1
sS'comienzan'
p6362
I1
sS'Vuelvo'
p6363
I1
sS'capacidad'
p6364
I3
sS'norteamericano'
p6365
I1
sS'James_Franco'
p6366
I2
sS'gusten'
p6367
I1
sS'The_Queen'
p6368
I1
sS'mugrosas'
p6369
I1
sS'intentaban'
p6370
I1
sS'disfrutar'
p6371
I4
sS'2006'
p6372
I4
sS'senectud'
p6373
I1
sS'Inclusive'
p6374
I2
sS'suspirar'
p6375
I2
sS'Ann'
p6376
I1
sS'escribir'
p6377
I2
sS'vers\xc3\xa1til'
p6378
I2
sS'Charlie_Hunnam'
p6379
I1
sS'Pongan'
p6380
I1
sS'2007'
p6381
I4
sS'Eddie_Murphy'
p6382
I1
sS'arcadas'
p6383
I1
sS'fondo'
p6384
I2
sS'creencia'
p6385
I1
sS'vendedores'
p6386
I1
sS'The_Notebook'
p6387
I1
sS'sociales'
p6388
I1
sS'John_Malkovich'
p6389
I1
sS'ilusionar'
p6390
I1
sS'pagando'
p6391
I1
sS'asesinados'
p6392
I1
sS'cine'
p6393
I53
sS'Malc_Bellver'
p6394
I1
sS'aquelarres'
p6395
I1
sS'Cuar\xc3\xb3n'
p6396
I2
sS'elige'
p6397
I1
sS'Festival_de_La_Habana'
p6398
I1
sS'llovido'
p6399
I1
sS'Nimr\xc3\xb3d_Antal'
p6400
I1
sS'car\xc3\xa1cteres'
p6401
I1
sS'vaquero'
p6402
I1
sS'Prophet'
p6403
I1
sS'a_el_tiempo_que'
p6404
I1
sS'luchador'
p6405
I2
sS'Scott_Eastwod'
p6406
I1
sS'tomado'
p6407
I1
sS'ayudado'
p6408
I1
sS'llev\xc3\xb3'
p6409
I3
sS'Prender'
p6410
I1
sS'instant\xc3\xa1nea'
p6411
I1
sS't\xc3\xadtulo'
p6412
I4
sS'olvidable'
p6413
I1
sS'estado'
p6414
I7
sS'Old_Men'
p6415
I2
sS'tomada'
p6416
I2
sS'Min-Woo_Hyung'
p6417
I1
sS'provocados'
p6418
I1
sS'ofrece'
p6419
I2
sS'Mar_Adentro'
p6420
I1
sS'Hidden_Figures'
p6421
I1
sS'Mortensen'
p6422
I1
sS'esperadas'
p6423
I1
sS'aparte'
p6424
I4
sS'Ah\xc3\xad'
p6425
I4
sS'l\xc3\xadmite'
p6426
I1
sS'deber\xc3\xadan'
p6427
I3
sS'l\xc3\xadder'
p6428
I1
sS'desesperadamente'
p6429
I1
sS'privada'
p6430
I1
sS'chispazos'
p6431
I1
sS'perfecta'
p6432
I2
sS'retra\xc3\xad'
p6433
I1
sS'onda'
p6434
I1
sS'Harrison_Ford'
p6435
I1
sS'cameo'
p6436
I2
sS'Roma'
p6437
I2
sS'Paul_W.S._Anderson'
p6438
I1
sS'John_Logan'
p6439
I1
sS'virtual'
p6440
I5
sS'desarrollar'
p6441
I1
sS'Sam_Worthington'
p6442
I2
sS'ejercicios'
p6443
I1
sS'apolog\xc3\xada'
p6444
I1
sS'hilarante'
p6445
I1
sS'Planet_Terror'
p6446
I1
sS'en_contra_de'
p6447
I5
sS'sobrando'
p6448
I1
sS'vida'
p6449
I23
sS'dedicaba'
p6450
I1
sS'bandidos'
p6451
I2
sS'heterog\xc3\xa9neo'
p6452
I1
sS'darnos_cuenta'
p6453
I1
sS'hacerles_frente'
p6454
I1
sS'resultar'
p6455
I2
sS'atrapado'
p6456
I1
sS'atrapada'
p6457
I1
sS'valientes'
p6458
I2
sS'Raquel_Welch'
p6459
I1
sS'Willis'
p6460
I1
sS'proliferaci\xc3\xb3n'
p6461
I1
sS'leyendas'
p6462
I3
sS'definitiva'
p6463
I1
sS'preso'
p6464
I1
sS'vistazo'
p6465
I1
sS'pedazo'
p6466
I1
sS'\xc3\xa1cido'
p6467
I1
sS'definitivo'
p6468
I1
sS'historia'
p6469
I65
sS'\xc3\xa1ridas'
p6470
I1
sS'presume'
p6471
I1
sS'da_cuenta'
p6472
I3
sS'desconocida'
p6473
I1
sS'andar'
p6474
I2
sS'Tony_DeZu\xc3\xb1iga'
p6475
I1
sS'funci\xc3\xb3n'
p6476
I2
sS'h\xc3\xa9roe'
p6477
I3
sS'renegada'
p6478
I1
sS'ambientaci\xc3\xb3n'
p6479
I3
sS'c\xc3\xb3mics'
p6480
I2
sS'id\xc3\xb3nea'
p6481
I1
sS'barbaridad'
p6482
I1
sS'renegado'
p6483
I1
sS'racista'
p6484
I1
sS'Har\xc3\xa9'
p6485
I1
sS'desmadre'
p6486
I1
sS'roto'
p6487
I1
sS'di\xc3\xa1logo'
p6488
I3
sS'paga'
p6489
I1
sS'innecesario'
p6490
I1
sS'regresar'
p6491
I3
sS'actriz'
p6492
I7
sS'Sherlock_Holmes'
p6493
I2
sS'retrato'
p6494
I1
sS'amores'
p6495
I1
sS'Cobb'
p6496
I1
sS'cometer'
p6497
I1
sS'naftalina'
p6498
I1
sS'a_cargo_de'
p6499
I5
sS'espaldas'
p6500
I2
sS'derecha'
p6501
I1
sS'Sus'
p6502
I2
sS'Mike_Newell'
p6503
I1
sS'cometen'
p6504
I1
sS'Marti_Noxon'
p6505
I1
sS'f\xc3\xadlmicas'
p6506
I1
sS'Jennifer_Lawrence'
p6507
I2
sS'gre\xc3\xb1uditos'
p6508
I1
sS'producido'
p6509
I2
sS'primavera-verano'
p6510
I1
sS'rendido'
p6511
I1
sS'Estos'
p6512
I2
sS'producida'
p6513
I3
sS'percatan'
p6514
I1
sS'desde'
p6515
I9
sS'Mejor_Guion'
p6516
I1
sS'Juno_Temple'
p6517
I1
sS'?'
p6518
I85
sS'criticado'
p6519
I1
sS'puedo'
p6520
I3
sS'medieval'
p6521
I1
sS'pueda'
p6522
I6
sS'Up'
p6523
I1
sS'puede'
p6524
I29
sS'mito'
p6525
I2
sS'Un'
p6526
I19
sS'dirige'
p6527
I14
sS'G.I._Joe'
p6528
I1
sS'chingadazo'
p6529
I1
sS'The_Stork'
p6530
I1
sS'usar'
p6531
I2
sS'form\xc3\xb3'
p6532
I1
sS'heroico'
p6533
I1
sS'testosterona'
p6534
I3
sS'accionar'
p6535
I1
sS'ning\xc3\xban'
p6536
I6
sS'Dejen'
p6537
I1
sS'Legi\xc3\xb3n'
p6538
I1
sS'Tom_Wilkinson'
p6539
I2
sS'surge'
p6540
I1
sS'Realidad_Virtual'
p6541
I1
sS'dudas'
p6542
I2
sS'muda'
p6543
I1
sS'biogr\xc3\xa1fica'
p6544
I2
sS'sobreviene'
p6545
I1
sS'a_diario'
p6546
I1
sS'28_d\xc3\xadas'
p6547
I1
sS'emotiva'
p6548
I1
sS'Juan'
p6549
I3
sS'Hawks'
p6550
I1
sS'Hellboy'
p6551
I2
sS'queriendo'
p6552
I2
sS'apareci\xc3\xb3'
p6553
I1
sS'pistola'
p6554
I1
sS'Ley_de_Herodes'
p6555
I2
sS'receptor'
p6556
I1
sS'drogado'
p6557
I1
sS'primas'
p6558
I1
sS'prop\xc3\xb3sitos'
p6559
I1
sS'espa\xc3\xb1olas'
p6560
I2
sS'ahonda'
p6561
I2
sS'Covenant'
p6562
I2
sS'Menci\xc3\xb3n'
p6563
I3
sS'van'
p6564
I8
sS'sali\xc3\xb3'
p6565
I1
sS'esperando'
p6566
I3
sS'Upon'
p6567
I1
sS'Vegas'
p6568
I1
sS'confronta'
p6569
I1
sS'org\xc3\xa1nico'
p6570
I1
sS'Nunca'
p6571
I1
sS'checar'
p6572
I1
sS'hablando'
p6573
I2
sS'norte'
p6574
I1
sS'vendr\xc3\xa1'
p6575
I1
sS'D\xc3\xb3nde'
p6576
I1
sS'dijo'
p6577
I3
sS'distintos'
p6578
I1
sS'ultima'
p6579
I3
sS'destacados'
p6580
I1
sS'Debut_de_Troy_Nixey'
p6581
I1
sS'Oops'
p6582
I1
sS'Ritchie'
p6583
I4
sS'ha'
p6584
I56
sS'ultimo'
p6585
I1
sS'he'
p6586
I5
sS'dama'
p6587
I1
sS'incluidos'
p6588
I2
sS'implacables'
p6589
I1
sS'habitantes'
p6590
I1
sS'pedote'
p6591
I1
sS'dejar\xc3\xa1'
p6592
I3
sS'armonizar'
p6593
I1
sS'infante'
p6594
I1
sS'cruel'
p6595
I2
sS'decepciones'
p6596
I1
sS'datos'
p6597
I1
sS'Mejor'
p6598
I5
sS'\xe2\x80\x98'
p6599
I7
sS'tirando'
p6600
I1
sS'categor\xc3\xada'
p6601
I3
sS'Frederick_Zoller'
p6602
I1
sS'deformar'
p6603
I1
sS'volumen'
p6604
I1
sS'etapa'
p6605
I2
sS'ambici\xc3\xb3n'
p6606
I2
sS'alcance'
p6607
I2
sS'revel\xc3\xb3'
p6608
I1
sS'universal'
p6609
I1
sS'se\xc3\xb1or'
p6610
I2
sS'accidente'
p6611
I2
sS'declaraciones'
p6612
I2
sS'incitan'
p6613
I1
sS'hipnotizados'
p6614
I1
sS'contratado'
p6615
I1
sS'mejor'
p6616
I29
sS'giro'
p6617
I1
sS'Tom_Hardy'
p6618
I1
sS'pastiche'
p6619
I1
sS'Michael_Patrick_King'
p6620
I1
sS'sint\xc3\xa9tico'
p6621
I1
sS'pas\xc3\xb3'
p6622
I2
sS'resurgir'
p6623
I1
sS'herir'
p6624
I1
sS'relatada'
p6625
I1
sS'descargando'
p6626
I1
sS'tercos'
p6627
I1
sS'miente'
p6628
I1
sS'conocer'
p6629
I1
sS'parecido'
p6630
I1
sS'Hard_Candy'
p6631
I1
sS'casos'
p6632
I2
sS'finca'
p6633
I1
sS'Jaden'
p6634
I1
sS'nuevamente'
p6635
I8
sS'recay\xc3\xb3'
p6636
I1
sS'Schindler'
p6637
I1
sS'Spielberg'
p6638
I1
sS'Cillian_Murphy'
p6639
I1
sS'dise\xc3\xb1ador'
p6640
I1
sS'Latinoam\xc3\xa9rica'
p6641
I3
sS'ingl\xc3\xa9s'
p6642
I1
sS'derrota'
p6643
I1
sS'radiograf\xc3\xada'
p6644
I1
sS'lleva'
p6645
I7
sS'Michale_Moore'
p6646
I1
sS'Cierra'
p6647
I1
sS'Arturo'
p6648
I2
sS'Dany_McBride'
p6649
I1
sS'expulsan'
p6650
I1
sS'envuelto'
p6651
I3
sS'percibir'
p6652
I1
sS'United_States'
p6653
I1
sS'Bogart'
p6654
I2
sS'secuelitis'
p6655
I1
sS'aspavientos'
p6656
I1
sS'Cineteca_Nacional'
p6657
I1
sS'1864'
p6658
I1
stp6659
Rp6660
.